
CE2830Lab.elf:     file format elf32-littlenios2
CE2830Lab.elf
architecture: nios2:r1, flags 0x00000112:
EXEC_P, HAS_SYMS, D_PAGED
start address 0x00000230

Program Header:
    LOAD off    0x00001000 vaddr 0x00000000 paddr 0x00000000 align 2**12
         filesz 0x00000020 memsz 0x00000020 flags r-x
    LOAD off    0x00001020 vaddr 0x00000020 paddr 0x00000020 align 2**12
         filesz 0x0001d530 memsz 0x0001d530 flags r-x
    LOAD off    0x0001e550 vaddr 0x0001d550 paddr 0x0001f120 align 2**12
         filesz 0x00001bd0 memsz 0x00001bd0 flags rw-
    LOAD off    0x00020cf0 vaddr 0x00020cf0 paddr 0x00020cf0 align 2**12
         filesz 0x00000000 memsz 0x00000174 flags rw-

Sections:
Idx Name          Size      VMA       LMA       File off  Algn
  0 .entry        00000020  00000000  00000000  00001000  2**5
                  CONTENTS, ALLOC, LOAD, READONLY, CODE
  1 .exceptions   00000210  00000020  00000020  00001020  2**2
                  CONTENTS, ALLOC, LOAD, READONLY, CODE
  2 .text         0001ca3c  00000230  00000230  00001230  2**2
                  CONTENTS, ALLOC, LOAD, READONLY, CODE
  3 .rodata       000008e4  0001cc6c  0001cc6c  0001dc6c  2**2
                  CONTENTS, ALLOC, LOAD, READONLY, DATA
  4 .rwdata       00001bd0  0001d550  0001f120  0001e550  2**2
                  CONTENTS, ALLOC, LOAD, DATA, SMALL_DATA
  5 .bss          00000174  00020cf0  00020cf0  00020cf0  2**2
                  ALLOC, SMALL_DATA
  6 .SDRAM        00000000  00020e64  00020e64  00020120  2**0
                  CONTENTS
  7 .Onchip_SRAM  00000000  08000000  08000000  00020120  2**0
                  CONTENTS
  8 .comment      00000023  00000000  00000000  00020120  2**0
                  CONTENTS, READONLY
  9 .debug_aranges 00001568  00000000  00000000  00020148  2**3
                  CONTENTS, READONLY, DEBUGGING
 10 .debug_info   000376fd  00000000  00000000  000216b0  2**0
                  CONTENTS, READONLY, DEBUGGING
 11 .debug_abbrev 0000dd1d  00000000  00000000  00058dad  2**0
                  CONTENTS, READONLY, DEBUGGING
 12 .debug_line   000121bc  00000000  00000000  00066aca  2**0
                  CONTENTS, READONLY, DEBUGGING
 13 .debug_frame  0000384c  00000000  00000000  00078c88  2**2
                  CONTENTS, READONLY, DEBUGGING
 14 .debug_str    00005763  00000000  00000000  0007c4d4  2**0
                  CONTENTS, READONLY, DEBUGGING
 15 .debug_loc    00025358  00000000  00000000  00081c37  2**0
                  CONTENTS, READONLY, DEBUGGING
 16 .debug_alt_sim_info 00000040  00000000  00000000  000a6f90  2**2
                  CONTENTS, READONLY, DEBUGGING
 17 .debug_ranges 000021e0  00000000  00000000  000a6fd0  2**3
                  CONTENTS, READONLY, DEBUGGING
 18 .thread_model 00000003  00000000  00000000  000add3a  2**0
                  CONTENTS, READONLY
 19 .cpu          00000005  00000000  00000000  000add3d  2**0
                  CONTENTS, READONLY
 20 .qsys         00000001  00000000  00000000  000add42  2**0
                  CONTENTS, READONLY
 21 .simulation_enabled 00000001  00000000  00000000  000add43  2**0
                  CONTENTS, READONLY
 22 .sysid_hash   00000004  00000000  00000000  000add44  2**0
                  CONTENTS, READONLY
 23 .sysid_base   00000004  00000000  00000000  000add48  2**0
                  CONTENTS, READONLY
 24 .sysid_time   00000004  00000000  00000000  000add4c  2**0
                  CONTENTS, READONLY
 25 .stderr_dev   00000009  00000000  00000000  000add50  2**0
                  CONTENTS, READONLY
 26 .stdin_dev    00000009  00000000  00000000  000add59  2**0
                  CONTENTS, READONLY
 27 .stdout_dev   00000009  00000000  00000000  000add62  2**0
                  CONTENTS, READONLY
 28 .sopc_system_name 0000000f  00000000  00000000  000add6b  2**0
                  CONTENTS, READONLY
 29 .quartus_project_dir 0000003d  00000000  00000000  000add7a  2**0
                  CONTENTS, READONLY
 30 .jdi          00006bd6  00000000  00000000  000addb7  2**0
                  CONTENTS, READONLY
 31 .sopcinfo     000cc620  00000000  00000000  000b498d  2**0
                  CONTENTS, READONLY
SYMBOL TABLE:
00000000 l    d  .entry	00000000 .entry
00000020 l    d  .exceptions	00000000 .exceptions
00000230 l    d  .text	00000000 .text
0001cc6c l    d  .rodata	00000000 .rodata
0001d550 l    d  .rwdata	00000000 .rwdata
00020cf0 l    d  .bss	00000000 .bss
00020e64 l    d  .SDRAM	00000000 .SDRAM
08000000 l    d  .Onchip_SRAM	00000000 .Onchip_SRAM
00000000 l    d  .comment	00000000 .comment
00000000 l    d  .debug_aranges	00000000 .debug_aranges
00000000 l    d  .debug_info	00000000 .debug_info
00000000 l    d  .debug_abbrev	00000000 .debug_abbrev
00000000 l    d  .debug_line	00000000 .debug_line
00000000 l    d  .debug_frame	00000000 .debug_frame
00000000 l    d  .debug_str	00000000 .debug_str
00000000 l    d  .debug_loc	00000000 .debug_loc
00000000 l    d  .debug_alt_sim_info	00000000 .debug_alt_sim_info
00000000 l    d  .debug_ranges	00000000 .debug_ranges
00000000 l    df *ABS*	00000000 ../CE2830Lab_bsp//obj/HAL/src/crt0.o
00000268 l       .text	00000000 alt_after_alt_main
00000000 l    df *ABS*	00000000 alt_irq_handler.c
00000000 l    df *ABS*	00000000 alt_instruction_exception_entry.c
00000000 l    df *ABS*	00000000 ServoAPI.c
00000000 l    df *ABS*	00000000 SevenSegs.c
0001f09c l     O .rwdata	00000004 HEX0HEX3
0001f0a0 l     O .rwdata	00000004 HEX4HEX5
00000000 l    df *ABS*	00000000 accelerometer.c
0001f0a4 l     O .rwdata	00000004 acceleromter
00000000 l    df *ABS*	00000000 adc.c
0001f0a8 l     O .rwdata	00000004 samples
0001f0ac l     O .rwdata	00000004 sequencerCmd
00000000 l    df *ABS*	00000000 camera.c
00000000 l    df *ABS*	00000000 delay.c
00000000 l    df *ABS*	00000000 hello_world.c
00000000 l    df *ABS*	00000000 main.c
0001f0b4 l     O .rwdata	00000004 HEX0HEX3
0001f0b8 l     O .rwdata	00000004 HEX4HEX5
00000000 l    df *ABS*	00000000 lib2-divmod.c
00000000 l    df *ABS*	00000000 lib2-mul.c
00000000 l    df *ABS*	00000000 fixsfsi.c
00000000 l    df *ABS*	00000000 floatsisf.c
00000000 l    df *ABS*	00000000 libgcc2.c
00000000 l    df *ABS*	00000000 libgcc2.c
00000000 l    df *ABS*	00000000 printf.c
00000000 l    df *ABS*	00000000 putchar.c
00000000 l    df *ABS*	00000000 puts.c
00000000 l    df *ABS*	00000000 rand.c
00000000 l    df *ABS*	00000000 scanf.c
00000000 l    df *ABS*	00000000 sprintf.c
00000000 l    df *ABS*	00000000 strlen.c
00000000 l    df *ABS*	00000000 vfprintf.c
0001ceea l     O .rodata	00000010 zeroes.4389
0001cefa l     O .rodata	00000010 blanks.4388
00000000 l    df *ABS*	00000000 time.c
00000000 l    df *ABS*	00000000 vfprintf.c
0001cf0a l     O .rodata	00000010 zeroes.4404
0000653c l     F .text	000000bc __sbprintf
0001cf1a l     O .rodata	00000010 blanks.4403
00000000 l    df *ABS*	00000000 vfscanf.c
0001cf32 l     O .rodata	00000022 basefix.4359
00000000 l    df *ABS*	00000000 wsetup.c
00000000 l    df *ABS*	00000000 ctype_.c
0001d055 l     O .rodata	00000180 _ctype_b
00000000 l    df *ABS*	00000000 dtoa.c
000081a8 l     F .text	00000228 quorem
00000000 l    df *ABS*	00000000 fflush.c
00000000 l    df *ABS*	00000000 findfp.c
00009d00 l     F .text	00000008 __fp_unlock
00009d14 l     F .text	0000019c __sinit.part.1
00009eb0 l     F .text	00000008 __fp_lock
00000000 l    df *ABS*	00000000 fread.c
00000000 l    df *ABS*	00000000 mallocr.c
00000000 l    df *ABS*	00000000 fvwrite.c
00000000 l    df *ABS*	00000000 fwalk.c
00000000 l    df *ABS*	00000000 gettimeofdayr.c
00000000 l    df *ABS*	00000000 impure.c
0001d550 l     O .rwdata	00000424 impure_data
00000000 l    df *ABS*	00000000 int_errno.c
00000000 l    df *ABS*	00000000 iswspace.c
00000000 l    df *ABS*	00000000 locale.c
0001d994 l     O .rwdata	00000020 lc_ctype_charset
0001d974 l     O .rwdata	00000020 lc_message_charset
0001d9b4 l     O .rwdata	00000038 lconv
00000000 l    df *ABS*	00000000 makebuf.c
00000000 l    df *ABS*	00000000 mallocr.c
00000000 l    df *ABS*	00000000 mbrtowc.c
00000000 l    df *ABS*	00000000 mbtowc_r.c
00000000 l    df *ABS*	00000000 memchr.c
00000000 l    df *ABS*	00000000 memcpy.c
00000000 l    df *ABS*	00000000 memmove.c
00000000 l    df *ABS*	00000000 memset.c
00000000 l    df *ABS*	00000000 mprec.c
0001d1f8 l     O .rodata	0000000c p05.2768
00000000 l    df *ABS*	00000000 putc.c
00000000 l    df *ABS*	00000000 mallocr.c
00000000 l    df *ABS*	00000000 refill.c
0000d72c l     F .text	0000001c lflush
00000000 l    df *ABS*	00000000 s_fpclassify.c
00000000 l    df *ABS*	00000000 sbrkr.c
00000000 l    df *ABS*	00000000 sccl.c
00000000 l    df *ABS*	00000000 sf_nan.c
00000000 l    df *ABS*	00000000 stdio.c
00000000 l    df *ABS*	00000000 strcmp.c
00000000 l    df *ABS*	00000000 strtod.c
0000dcd4 l     F .text	00000064 sulp
0001d32c l     O .rodata	00000014 fpinan.2773
0001d340 l     O .rodata	00000014 fpi.2737
0001d354 l     O .rodata	00000028 tinytens
00000000 l    df *ABS*	00000000 strtol.c
00000000 l    df *ABS*	00000000 strtoll_r.c
00000000 l    df *ABS*	00000000 strtoul.c
00000000 l    df *ABS*	00000000 strtoull_r.c
00000000 l    df *ABS*	00000000 vfprintf.c
0001d37c l     O .rodata	00000010 zeroes.4333
0001d38c l     O .rodata	00000010 blanks.4332
00000000 l    df *ABS*	00000000 ungetc.c
00000000 l    df *ABS*	00000000 vfprintf.c
00011750 l     F .text	000000fc __sprint_r.part.0
0001d39c l     O .rodata	00000010 zeroes.4349
00012d8c l     F .text	000000bc __sbprintf
0001d3ac l     O .rodata	00000010 blanks.4348
00000000 l    df *ABS*	00000000 wbuf.c
00000000 l    df *ABS*	00000000 writer.c
00000000 l    df *ABS*	00000000 closer.c
00000000 l    df *ABS*	00000000 mallocr.c
00000000 l    df *ABS*	00000000 fclose.c
00000000 l    df *ABS*	00000000 fputwc.c
00000000 l    df *ABS*	00000000 fstatr.c
00000000 l    df *ABS*	00000000 gdtoa-gethex.c
00013498 l     F .text	00000100 rshift
00000000 l    df *ABS*	00000000 gdtoa-hexnan.c
00000000 l    df *ABS*	00000000 isattyr.c
00000000 l    df *ABS*	00000000 lseekr.c
00000000 l    df *ABS*	00000000 readr.c
00000000 l    df *ABS*	00000000 strncmp.c
00000000 l    df *ABS*	00000000 wcrtomb.c
00000000 l    df *ABS*	00000000 wctomb_r.c
00000000 l    df *ABS*	00000000 libgcc2.c
00000000 l    df *ABS*	00000000 libgcc2.c
00000000 l    df *ABS*	00000000 libgcc2.c
00000000 l    df *ABS*	00000000 libgcc2.c
00000000 l    df *ABS*	00000000 eqsf2.c
00000000 l    df *ABS*	00000000 gesf2.c
00000000 l    df *ABS*	00000000 lesf2.c
00000000 l    df *ABS*	00000000 adddf3.c
00000000 l    df *ABS*	00000000 divdf3.c
00000000 l    df *ABS*	00000000 eqdf2.c
00000000 l    df *ABS*	00000000 gedf2.c
00000000 l    df *ABS*	00000000 ledf2.c
00000000 l    df *ABS*	00000000 muldf3.c
00000000 l    df *ABS*	00000000 subdf3.c
00000000 l    df *ABS*	00000000 fixdfsi.c
00000000 l    df *ABS*	00000000 floatsidf.c
00000000 l    df *ABS*	00000000 floatunsidf.c
00000000 l    df *ABS*	00000000 truncdfsf2.c
00000000 l    df *ABS*	00000000 alt_busy_sleep.c
00000000 l    df *ABS*	00000000 alt_close.c
00017e8c l     F .text	0000003c alt_get_errno
00000000 l    df *ABS*	00000000 alt_dev.c
00017fa0 l     F .text	0000002c alt_dev_null_write
00000000 l    df *ABS*	00000000 alt_errno.c
00000000 l    df *ABS*	00000000 alt_fstat.c
00017fcc l     F .text	0000003c alt_get_errno
00000000 l    df *ABS*	00000000 alt_gettod.c
00000000 l    df *ABS*	00000000 alt_isatty.c
000182b4 l     F .text	0000003c alt_get_errno
00000000 l    df *ABS*	00000000 alt_load.c
0001839c l     F .text	00000068 alt_load_section
00000000 l    df *ABS*	00000000 alt_lseek.c
00018488 l     F .text	0000003c alt_get_errno
00000000 l    df *ABS*	00000000 alt_main.c
00000000 l    df *ABS*	00000000 alt_malloc_lock.c
00000000 l    df *ABS*	00000000 alt_read.c
00018664 l     F .text	0000003c alt_get_errno
00000000 l    df *ABS*	00000000 alt_release_fd.c
00000000 l    df *ABS*	00000000 alt_sbrk.c
0001f100 l     O .rwdata	00000004 heap_end
00000000 l    df *ABS*	00000000 alt_tick.c
00000000 l    df *ABS*	00000000 alt_usleep.c
00000000 l    df *ABS*	00000000 alt_write.c
00018aac l     F .text	0000003c alt_get_errno
00000000 l    df *ABS*	00000000 alt_sys_init.c
00018be8 l     F .text	00000034 alt_dev_reg
0001df9c l     O .rwdata	00000038 camera_i2c
0001dfd4 l     O .rwdata	00001060 JTAG_UART
0001f034 l     O .rwdata	0000003c JoyStick_ADC
0001f070 l     O .rwdata	0000002c Accelerometer_SPI
00000000 l    df *ABS*	00000000 altera_avalon_i2c.c
00018ce4 l     F .text	00000110 optional_irq_callback
00018e44 l     F .text	0000009c alt_avalon_i2c_irq
00000000 l    df *ABS*	00000000 altera_avalon_jtag_uart_fd.c
00000000 l    df *ABS*	00000000 altera_avalon_jtag_uart_init.c
0001ab20 l     F .text	0000020c altera_avalon_jtag_uart_irq
0001ad2c l     F .text	000000a0 altera_avalon_jtag_uart_timeout
00000000 l    df *ABS*	00000000 altera_avalon_jtag_uart_ioctl.c
00000000 l    df *ABS*	00000000 altera_avalon_jtag_uart_read.c
00000000 l    df *ABS*	00000000 altera_avalon_jtag_uart_write.c
00000000 l    df *ABS*	00000000 altera_avalon_timer_sc.c
0001b364 l     F .text	00000078 alt_avalon_timer_sc_irq
00000000 l    df *ABS*	00000000 altera_modular_adc.c
0001b458 l     F .text	000000a8 alt_adc_irq
00000000 l    df *ABS*	00000000 alt_alarm_start.c
00000000 l    df *ABS*	00000000 alt_dcache_flush_all.c
00000000 l    df *ABS*	00000000 alt_dev_llist_insert.c
0001bb10 l     F .text	0000003c alt_get_errno
00000000 l    df *ABS*	00000000 alt_do_ctors.c
00000000 l    df *ABS*	00000000 alt_do_dtors.c
00000000 l    df *ABS*	00000000 alt_find_dev.c
00000000 l    df *ABS*	00000000 alt_icache_flush_all.c
00000000 l    df *ABS*	00000000 alt_iic.c
00000000 l    df *ABS*	00000000 alt_iic_isr_register.c
00000000 l    df *ABS*	00000000 alt_io_redirect.c
0001c000 l     F .text	000000e4 alt_open_fd
00000000 l    df *ABS*	00000000 alt_irq_vars.c
00000000 l    df *ABS*	00000000 alt_open.c
0001c160 l     F .text	0000003c alt_get_errno
0001c19c l     F .text	000000ec alt_file_locked
00000000 l    df *ABS*	00000000 alt_printf.c
00000000 l    df *ABS*	00000000 alt_putchar.c
00000000 l    df *ABS*	00000000 altera_nios2_gen2_irq.c
00000000 l    df *ABS*	00000000 alt_find_file.c
00000000 l    df *ABS*	00000000 alt_get_fd.c
00000000 l    df *ABS*	00000000 atexit.c
00000000 l    df *ABS*	00000000 exit.c
00000000 l    df *ABS*	00000000 memcmp.c
00000000 l    df *ABS*	00000000 __atexit.c
00000000 l    df *ABS*	00000000 __call_atexit.c
00000000 l    df *ABS*	00000000 alt_exit.c
00020d38 g     O .bss	00000004 alt_instruction_exception_handler
00001c08 g     F .text	00000018 putchar
0000cee8 g     F .text	00000074 _mprec_log10
0001b6f8 g     F .text	00000050 adc_stop
0000cfd4 g     F .text	0000008c __any_on
00014044 g     F .text	00000054 _isatty_r
0001d204 g     O .rodata	00000028 __mprec_tinytens
000185a0 g     F .text	0000007c alt_main
000003d4 g     F .text	00000098 ASCII_to_7Seg
0001f0c0 g     O .rwdata	00000004 pushbuttons
00001c20 g     F .text	000000c0 _puts_r
00020d64 g     O .bss	00000100 alt_irq
00014098 g     F .text	00000060 _lseek_r
0001f120 g       *ABS*	00000000 __flash_rwdata_start
000165c8 g     F .text	00000088 .hidden __eqdf2
0000ada4 g     F .text	0000005c _gettimeofday_r
00020e64 g       *ABS*	00000000 __alt_heap_start
00001bc4 g     F .text	0000003c printf
00014228 g     F .text	0000009c _wcrtomb_r
0000db94 g     F .text	0000005c __sseek
0000a060 g     F .text	00000010 __sinit
00012e48 g     F .text	00000140 __swbuf_r
0000ae30 g     F .text	0000007c _setlocale_r
00009eb8 g     F .text	00000078 __sfmoreglue
00000a70 g     F .text	00000090 cam_read
0001953c g     F .text	000000a8 alt_avalon_i2c_rx_read
00011738 g     F .text	00000018 ungetc
00018640 g     F .text	00000024 __malloc_unlock
0000071c g     F .text	000000b0 acc_steady_servo
0000dd38 g     F .text	000015e4 _strtod_r
000009f8 g     F .text	00000078 cam_write
0001a754 g     F .text	00000044 alt_avalon_i2c_enabled_ints_get
000192c0 g     F .text	00000094 alt_avalon_i2c_master_config_speed_get
0000bd24 g     F .text	0000015c memmove
00000310 g     F .text	00000034 servo_pan
0000a048 g     F .text	00000018 _cleanup
00019fa4 g     F .text	0000020c alt_avalon_i2c_master_transmit_using_interrupts
0000bfa8 g     F .text	000000a8 _Balloc
0000199c g     F .text	00000070 .hidden __fixsfsi
00016650 g     F .text	000000dc .hidden __gtdf2
0001c64c g     F .text	00000024 altera_nios2_gen2_irq_init
00000000 g     F .entry	0000000c __reset
0001b8bc g     F .text	00000048 adc_interrupt_disable
00000020 g       *ABS*	00000000 __flash_exceptions_start
0001343c g     F .text	0000005c _fstat_r
00020cf4 g     O .bss	00000004 errno
00007fec g     F .text	0000001c __svfscanf
0000db10 g     F .text	00000008 __seofread
00010130 g     F .text	000013a0 ___svfiprintf_internal_r
0001b5ac g     F .text	00000074 altera_modular_adc_init
00020d24 g     O .bss	00000004 alt_argv
0002709c g       *ABS*	00000000 _gp
00018a7c g     F .text	00000030 usleep
0001a798 g     F .text	0000004c alt_avalon_i2c_rx_fifo_threshold_get
00019450 g     F .text	00000044 alt_avalon_i2c_is_busy
0001de1c g     O .rwdata	00000180 alt_fd_list
00001c00 g     F .text	00000008 _putchar_r
000191f4 g     F .text	000000cc alt_avalon_i2c_master_config_set
0001bcb0 g     F .text	00000090 alt_find_dev
0000bbdc g     F .text	00000148 memcpy
00013de8 g     F .text	0000025c __hexnan
00000bb8 g     F .text	00000778 cam_write_2
00009d08 g     F .text	0000000c _cleanup_r
00017a08 g     F .text	000000dc .hidden __floatsidf
0001b7c0 g     F .text	0000003c adc_set_mode_run_continuously
0001c0e4 g     F .text	0000007c alt_io_redirect
0001672c g     F .text	000000f4 .hidden __ltdf2
0001cc6c g       *ABS*	00000000 __DTOR_END__
00019de4 g     F .text	000001c0 alt_avalon_i2c_master_transmit
00001ce0 g     F .text	00000014 puts
0001c83c g     F .text	0000009c alt_exception_cause_generated_bad_addr
00001394 g     F .text	000000a0 cam_dump
0000b980 g     F .text	000000d8 mbrtowc
0000d91c g     F .text	00000074 __fpclassifyd
00008008 g     F .text	0000004c _vfscanf_r
0000ce44 g     F .text	000000a4 __ratio
00012d70 g     F .text	0000001c __vfiprintf_internal
0001af24 g     F .text	0000021c altera_avalon_jtag_uart_read
00001b94 g     F .text	00000030 _printf_r
000018b8 g     F .text	00000064 .hidden __udivsi3
000182f0 g     F .text	000000ac isatty
0000ae00 g     F .text	00000030 iswspace
0001d254 g     O .rodata	000000c8 __mprec_tens
0000aeac g     F .text	0000000c __locale_charset
00015284 g     F .text	000000c8 .hidden __lesf2
00020d10 g     O .bss	00000008 alt_timezone
0001451c g     F .text	00000074 .hidden __fixunsdfsi
00019060 g     F .text	00000098 alt_avalon_i2c_enable
00020d0c g     O .bss	00000004 __malloc_top_pad
0000fc24 g     F .text	0000001c strtoul
0001a688 g     F .text	00000068 alt_avalon_i2c_int_disable
0001f0d4 g     O .rwdata	00000004 __mb_cur_max
0000aedc g     F .text	0000000c _localeconv_r
0000fc40 g     F .text	00000320 _strtoull_r
0000c3dc g     F .text	0000003c __i2b
0000a754 g     F .text	000004c8 __sfvwrite_r
0000046c g     F .text	00000100 num_to_7Seg
0000d990 g     F .text	00000054 _sbrk_r
000140f8 g     F .text	00000060 _read_r
0001f114 g     O .rwdata	00000008 altera_modular_adc_list
0001f0f8 g     O .rwdata	00000004 alt_max_fd
00013130 g     F .text	000000f0 _fclose_r
00009cd0 g     F .text	00000030 fflush
00020d08 g     O .bss	00000004 __malloc_max_sbrked_mem
0001a1b0 g     F .text	00000210 alt_avalon_i2c_master_receive
0001534c g     F .text	000008ac .hidden __adddf3
00015150 g     F .text	00000078 .hidden __nesf2
0000cbec g     F .text	0000010c __b2d
00014b8c g     F .text	000005c4 .hidden __umoddi3
000184c4 g     F .text	000000dc lseek
0001a6f0 g     F .text	00000064 alt_avalon_i2c_int_enable
0001f0cc g     O .rwdata	00000004 _global_impure_ptr
0000d1c8 g     F .text	00000564 _realloc_r
00020e64 g       *ABS*	00000000 __bss_end
0001bf10 g     F .text	000000f0 alt_iic_isr_register
00018974 g     F .text	00000108 alt_tick
0001d3bc g     O .rodata	00000100 __hexdig
00014590 g     F .text	000005fc .hidden __udivdi3
0001a5b0 g     F .text	00000058 alt_avalon_i2c_int_status_get
00013398 g     F .text	00000024 _fputwc_r
0001b988 g     F .text	0000003c adc_wait_for_interrupt
0001d22c g     O .rodata	00000028 __mprec_bigtens
0000c1c0 g     F .text	00000104 __s2b
00017ae4 g     F .text	000000a8 .hidden __floatunsidf
0000c92c g     F .text	00000060 __mcmp
0000056c g     F .text	00000090 acc_read_x
0001f0c4 g     O .rwdata	00000004 slideSwitches
0000a080 g     F .text	00000018 __fp_lock_all
0001bec4 g     F .text	0000004c alt_ic_irq_enabled
000188d8 g     F .text	0000009c alt_alarm_stop
0000f68c g     F .text	0000001c strtol
00018ee0 g     F .text	00000054 alt_avalon_i2c_register_callback
00000884 g     F .text	000000c8 read_joystick
00020d34 g     O .bss	00000004 alt_irq_active
00018f34 g     F .text	000000ec alt_avalon_i2c_init
000000fc g     F .exceptions	000000d4 alt_irq_handler
0001ddf4 g     O .rwdata	00000028 alt_dev_null
0001b780 g     F .text	00000040 adc_set_mode_run_once
0001baf0 g     F .text	00000020 alt_dcache_flush_all
0000c2c4 g     F .text	00000068 __hi0bits
00017988 g     F .text	00000080 .hidden __fixdfsi
0000084c g     F .text	00000038 read_channel2
0000f31c g     F .text	00000018 strtod
0001f120 g       *ABS*	00000000 __ram_rwdata_end
0001f0f0 g     O .rwdata	00000008 alt_dev_list
00018ae8 g     F .text	00000100 write
0000d060 g     F .text	000000a0 _putc_r
00019870 g     F .text	0000004c alt_avalon_i2c_check_arblost
000151c8 g     F .text	000000bc .hidden __gtsf2
0001a64c g     F .text	0000003c alt_avalon_i2c_int_clear
0001d550 g       *ABS*	00000000 __ram_rodata_end
00018008 g     F .text	000000b8 fstat
00000000 g       *ABS*	00000000 __alt_mem_SDRAM
0001672c g     F .text	000000f4 .hidden __ledf2
000009a4 g     F .text	00000054 delay_1ms
0001f10c g     O .rwdata	00000008 alt_avalon_i2c_list
0001b748 g     F .text	00000038 adc_start
0000c6a4 g     F .text	00000140 __pow5mult
00011864 g     F .text	0000150c ___vfiprintf_internal_r
00020d00 g     O .bss	00000004 __nlocale_changed
0000191c g     F .text	00000058 .hidden __umodsi3
00001dac g     F .text	00000030 _scanf_r
00020e64 g       *ABS*	00000000 end
0001f0bc g     O .rwdata	00000004 leds
0000094c g     F .text	00000058 delay_1s
0001aa60 g     F .text	000000c0 altera_avalon_jtag_uart_init
000001d0 g     F .exceptions	00000060 alt_instruction_exception_entry
00019020 g     F .text	00000040 alt_avalon_i2c_open
0001cc6c g       *ABS*	00000000 __CTOR_LIST__
04000000 g       *ABS*	00000000 __alt_stack_pointer
000199f8 g     F .text	000000e8 alt_avalon_i2c_master_tx
0001b3dc g     F .text	0000007c alt_avalon_timer_sc_init
00001b30 g     F .text	00000064 .hidden __clzsi2
0001b140 g     F .text	00000224 altera_avalon_jtag_uart_write
0000a070 g     F .text	00000004 __sfp_lock_acquire
0000baf8 g     F .text	000000e4 memchr
00004244 g     F .text	000022dc ___vfprintf_internal_r
00001ddc g     F .text	00000058 _sprintf_r
0000a444 g     F .text	00000310 _free_r
0001c3e4 g     F .text	0000022c alt_printf
00001458 g     F .text	000000dc copy_that
0000aeb8 g     F .text	00000010 __locale_mb_cur_max
0001cab8 g     F .text	00000180 __call_exitprocs
00020cfc g     O .bss	00000004 __mlocale_changed
00018df4 g     F .text	00000050 alt_avalon_i2c_register_optional_irq_handler
0001f0d8 g     O .rwdata	00000004 __malloc_sbrk_base
00000230 g     F .text	0000003c _start
00020d2c g     O .bss	00000004 _alt_tick_rate
0000f6a8 g     F .text	00000304 _strtoll_r
0001a3c0 g     F .text	000001f0 alt_avalon_i2c_master_receive_using_interrupts
00001d0c g     F .text	00000064 rand
0001a7e4 g     F .text	00000064 alt_avalon_i2c_rx_fifo_threshold_set
00000344 g     F .text	00000060 servo_randomMovement
0000c7e4 g     F .text	00000148 __lshift
00020d30 g     O .bss	00000004 _alt_nticks
000186a0 g     F .text	00000104 read
00018c54 g     F .text	00000090 alt_sys_init
00001a0c g     F .text	00000124 .hidden __floatsisf
0000ff60 g     F .text	000001d0 __ssprint_r
0001c9a0 g     F .text	00000118 __register_exitproc
00014158 g     F .text	000000d0 strncmp
00019c1c g     F .text	000001c8 alt_avalon_i2c_master_tx_rx
0000c418 g     F .text	0000028c __multiply
0001adcc g     F .text	00000068 altera_avalon_jtag_uart_close
00001974 g     F .text	00000028 .hidden __mulsi3
0001d550 g       *ABS*	00000000 __ram_rwdata_start
0001cc6c g       *ABS*	00000000 __ram_rodata_start
00020d3c g     O .bss	00000028 __malloc_current_mallinfo
00015150 g     F .text	00000078 .hidden __eqsf2
0000ccf8 g     F .text	0000014c __d2b
000002d8 g     F .text	00000038 servo_center
0001a8fc g     F .text	00000060 altera_avalon_jtag_uart_read_fd
0000f9ac g     F .text	00000278 _strtoul_r
0001c778 g     F .text	000000c4 alt_get_fd
00017d34 g     F .text	00000158 alt_busy_sleep
00013000 g     F .text	00000054 _close_r
0001c924 g     F .text	0000007c memcmp
00019494 g     F .text	000000a8 alt_avalon_i2c_rx_read_available
0001a9bc g     F .text	00000050 altera_avalon_jtag_uart_close_fd
00020e64 g       *ABS*	00000000 __alt_stack_base
0001aa0c g     F .text	00000054 altera_avalon_jtag_uart_ioctl_fd
00008054 g     F .text	00000154 __swsetup_r
0001b878 g     F .text	00000044 adc_interrupt_enable
00020cf0 g     O .bss	00000004 i2c_dev
00015bf8 g     F .text	000009d0 .hidden __divdf3
00009f30 g     F .text	00000118 __sfp
0000cf5c g     F .text	00000078 __copybits
0001d9ec g     O .rwdata	00000408 __malloc_av_
0000a07c g     F .text	00000004 __sinit_lock_release
00016820 g     F .text	0000086c .hidden __muldf3
0000dabc g     F .text	00000054 __sread
0000a2ec g     F .text	00000034 fread
0001c670 g     F .text	00000108 alt_find_file
0001bb4c g     F .text	000000a4 alt_dev_llist_insert
0001861c g     F .text	00000024 __malloc_lock
00018828 g     F .text	000000b0 sbrk
00001f38 g     F .text	000022bc ___svfprintf_internal_r
000198bc g     F .text	0000013c alt_avalon_i2c_interrupt_transaction_status
00019824 g     F .text	0000004c alt_avalon_i2c_check_nack
00009c74 g     F .text	0000005c _fflush_r
00013054 g     F .text	000000dc _calloc_r
000180c0 g     F .text	000001f4 gettimeofday
00020cf0 g       *ABS*	00000000 __bss_start
0000be80 g     F .text	00000128 memset
00001534 g     F .text	0000028c main
00000814 g     F .text	00000038 read_channel1
000197f0 g     F .text	00000034 alt_avalon_i2c_master_target_set
00020d28 g     O .bss	00000004 alt_envp
00020d04 g     O .bss	00000004 __malloc_max_total_mem
0001a95c g     F .text	00000060 altera_avalon_jtag_uart_write_fd
00012f88 g     F .text	00000018 __swbuf
00001cf4 g     F .text	00000018 srand
0001a608 g     F .text	00000044 alt_avalon_i2c_int_raw_status_get
00015284 g     F .text	000000c8 .hidden __ltsf2
0001b500 g     F .text	000000ac alt_adc_word_read
0000a0b0 g     F .text	0000023c _fread_r
0000dbf0 g     F .text	00000008 __sclose
04000000 g       *ABS*	00000000 __alt_heap_limit
00013220 g     F .text	00000014 fclose
00001434 g     F .text	00000024 delay_usec
0000f434 g     F .text	00000258 _strtol_r
00017b8c g     F .text	000001a8 .hidden __truncdfsf2
000083d0 g     F .text	00001688 _dtoa_r
0000b0c8 g     F .text	0000080c _malloc_r
00014384 g     F .text	00000030 __ascii_wctomb
000041f4 g     F .text	00000050 time
0001f0fc g     O .rwdata	00000004 alt_errno
000114d0 g     F .text	000000d4 __submore
0000ac1c g     F .text	000000c4 _fwalk
0000026c g     F .text	0000006c servo_setAngle
0000ba9c g     F .text	0000005c _mbtowc_r
0000d100 g     F .text	000000c8 putc
000017c0 g     F .text	00000084 .hidden __divsi3
0000a320 g     F .text	00000124 _malloc_trim_r
0001cc6c g       *ABS*	00000000 __CTOR_END__
0000dbf8 g     F .text	000000dc strcmp
0001cc6c g       *ABS*	00000000 __flash_rodata_start
0001cc6c g       *ABS*	00000000 __DTOR_LIST__
000165c8 g     F .text	00000088 .hidden __nedf2
00018c1c g     F .text	00000038 alt_irq_init
000187a4 g     F .text	00000084 alt_release_fd
00001e34 g     F .text	0000006c sprintf
0001cda2 g     O .rodata	00000100 .hidden __clz_tab
000005fc g     F .text	00000090 acc_read_y
00020cf8 g     O .bss	00000004 _PathLocale
0001f0b0 g     O .rwdata	00000004 pixel_buffer
0000f334 g     F .text	00000100 strtof
0001c8d8 g     F .text	00000014 atexit
000151c8 g     F .text	000000bc .hidden __gesf2
00012fa0 g     F .text	00000060 _write_r
0000aee8 g     F .text	00000018 setlocale
00001d70 g     F .text	0000003c scanf
0000dab4 g     F .text	00000008 nanf
0001f0d0 g     O .rwdata	00000004 _impure_ptr
00020d20 g     O .bss	00000004 alt_argc
000007cc g     F .text	00000048 adc_init
00009a58 g     F .text	0000021c __sflush_r
0000b8d4 g     F .text	000000ac _mbrtowc_r
0001bc50 g     F .text	00000060 _do_dtors
0000aed4 g     F .text	00000008 __locale_cjk_lang
000197b8 g     F .text	00000038 alt_avalon_i2c_master_target_get
00000b00 g     F .text	000000b8 cam_write_1
000196c8 g     F .text	000000f0 alt_avalon_i2c_send_address
0000d748 g     F .text	000001d4 __srefill_r
00000020 g       .exceptions	00000000 alt_irq_entry
0000ba58 g     F .text	00000044 __ascii_mbtowc
0000cb88 g     F .text	00000064 __ulp
0000a098 g     F .text	00000018 __fp_unlock_all
0001f0e8 g     O .rwdata	00000008 alt_fs_list
00020d18 g     O .bss	00000008 alt_resettime
00000020 g       *ABS*	00000000 __ram_exceptions_start
0000af00 g     F .text	0000000c localeconv
0001a894 g     F .text	00000068 alt_avalon_i2c_tfr_cmd_fifo_threshold_set
0001bd60 g     F .text	00000050 alt_ic_isr_register
000190f8 g     F .text	0000004c alt_avalon_i2c_disable
0001f120 g       *ABS*	00000000 _edata
00020e64 g       *ABS*	00000000 _end
0001b948 g     F .text	00000040 adc_interrupt_asserted
00013234 g     F .text	00000164 __fputwc
00000230 g       *ABS*	00000000 __ram_exceptions_end
00007f84 g     F .text	00000068 vfscanf
0001ae34 g     F .text	000000f0 altera_avalon_jtag_uart_ioctl
08000000 g       *ABS*	00000000 __alt_mem_Onchip_SRAM
00019144 g     F .text	000000b0 alt_avalon_i2c_master_config_get
0001be38 g     F .text	0000008c alt_ic_irq_disable
0000db18 g     F .text	0000007c __swrite
0001f0dc g     O .rwdata	00000004 __malloc_trim_threshold
0001b904 g     F .text	00000044 adc_clear_interrupt_status
0000aec8 g     F .text	0000000c __locale_msgcharset
0001c8ec g     F .text	00000038 exit
0000ace0 g     F .text	000000c4 _fwalk_reent
0000c98c g     F .text	000001fc __mdiff
00001844 g     F .text	00000074 .hidden __modsi3
0001f0c8 g     O .rwdata	00000004 __ctype_ptr__
000003a4 g     F .text	00000030 clearSevenSegs
04000000 g       *ABS*	00000000 __alt_data_end
00000020 g     F .exceptions	00000000 alt_exception
0000a074 g     F .text	00000004 __sfp_lock_release
0000d9e4 g     F .text	000000d0 __sccl
00019354 g     F .text	000000fc alt_avalon_i2c_master_config_speed_set
0001cf54 g     O .rodata	00000101 _ctype_
000195e4 g     F .text	000000e4 alt_avalon_i2c_cmd_write
0001f0e0 g     O .rwdata	00000004 __mbtowc
0001b6b8 g     F .text	00000040 altera_modular_adc_open
0000068c g     F .text	00000090 acc_read_z
0001cc38 g     F .text	00000034 _exit
0001b9c4 g     F .text	0000012c alt_alarm_start
00001330 g     F .text	00000064 cam_init
00014410 g     F .text	0000010c .hidden __muldi3
0000af0c g     F .text	000001bc __smakebuf_r
00001ea0 g     F .text	00000098 strlen
0001c288 g     F .text	0000015c open
00016650 g     F .text	000000dc .hidden __gedf2
0001c610 g     F .text	0000003c alt_putchar
00013598 g     F .text	00000850 __gethex
0001b7fc g     F .text	0000007c adc_recalibrate
0001f0e4 g     O .rwdata	00000004 __wctomb
0001184c g     F .text	00000018 __sprint_r
0001bd40 g     F .text	00000020 alt_icache_flush_all
0001f11c g     O .rwdata	00000004 alt_priority_mask
0001bdb0 g     F .text	00000088 alt_ic_irq_enable
00006520 g     F .text	0000001c __vfprintf_internal
000143b4 g     F .text	0000005c _wctomb_r
0001708c g     F .text	000008fc .hidden __subdf3
0000c32c g     F .text	000000b0 __lo0bits
000065f8 g     F .text	0000198c __svfscanf_r
0001f104 g     O .rwdata	00000008 alt_alarm_list
000115a4 g     F .text	00000194 _ungetc_r
0001bbf0 g     F .text	00000060 _do_ctors
000142c4 g     F .text	000000c0 wcrtomb
00017ec8 g     F .text	000000d8 close
0001a848 g     F .text	0000004c alt_avalon_i2c_tfr_cmd_fifo_threshold_get
00018404 g     F .text	00000084 alt_load
00019ae0 g     F .text	0000013c alt_avalon_i2c_master_rx
000133bc g     F .text	00000080 fputwc
0001b620 g     F .text	00000098 alt_adc_register_callback
0000a078 g     F .text	00000004 __sinit_lock_acquire
0000c078 g     F .text	00000148 __multadd
0000c050 g     F .text	00000028 _Bfree



Disassembly of section .entry:

00000000 <__reset>:
 * Jump to the _start entry point in the .text section if reset code
 * is allowed or if optimizing for RTL simulation.
 */
#if defined(ALT_ALLOW_CODE_AT_RESET) || defined(ALT_SIM_OPTIMIZE)
    /* Jump to the _start entry point in the .text section. */
    movhi r1, %hi(_start)
   0:	00400034 	movhi	at,0
    ori r1, r1, %lo(_start)
   4:	08408c14 	ori	at,at,560
    jmp r1
   8:	0800683a 	jmp	at
	...

Disassembly of section .exceptions:

00000020 <alt_exception>:

#else /* ALT_EXCEPTION_STACK disabled */
        /* 
         * Reserve space on normal stack for registers about to be pushed.
         */
        addi  sp, sp, -76
  20:	deffed04 	addi	sp,sp,-76
         * documentation for details).
         *
         * Leave a gap in the stack frame at 4(sp) for the muldiv handler to
         * store zero into.
         */
        stw   ra,  0(sp)
  24:	dfc00015 	stw	ra,0(sp)
        stw   r1,   8(sp)
  28:	d8400215 	stw	at,8(sp)
        stw   r2,  12(sp)
  2c:	d8800315 	stw	r2,12(sp)
        stw   r3,  16(sp)
  30:	d8c00415 	stw	r3,16(sp)
        stw   r4,  20(sp)
  34:	d9000515 	stw	r4,20(sp)
        stw   r5,  24(sp)
  38:	d9400615 	stw	r5,24(sp)
        stw   r6,  28(sp)
  3c:	d9800715 	stw	r6,28(sp)
        stw   r7,  32(sp)
  40:	d9c00815 	stw	r7,32(sp)
        rdctl r5, estatus   /* Read early to avoid usage stall */
  44:	000b307a 	rdctl	r5,estatus
        stw   r8,  36(sp)
  48:	da000915 	stw	r8,36(sp)
        stw   r9,  40(sp)
  4c:	da400a15 	stw	r9,40(sp)
        stw   r10, 44(sp)
  50:	da800b15 	stw	r10,44(sp)
        stw   r11, 48(sp)
  54:	dac00c15 	stw	r11,48(sp)
        stw   r12, 52(sp)
  58:	db000d15 	stw	r12,52(sp)
        stw   r13, 56(sp)
  5c:	db400e15 	stw	r13,56(sp)
        stw   r14, 60(sp)
  60:	db800f15 	stw	r14,60(sp)
        stw   r15, 64(sp)
  64:	dbc01015 	stw	r15,64(sp)
        /*
         * ea-4 contains the address of the instruction being executed
         * when the exception occured. For interrupt exceptions, we will
         * will be re-issue the isntruction. Store it in 72(sp)
         */
        stw   r5,  68(sp)  /* estatus */
  68:	d9401115 	stw	r5,68(sp)
        addi  r15, ea, -4  /* instruction that caused exception */
  6c:	ebffff04 	addi	r15,ea,-4
        stw   r15,  72(sp)
  70:	dbc01215 	stw	r15,72(sp)
#else
        /*
         * Test to see if the exception was a software exception or caused 
         * by an external interrupt, and vector accordingly.
         */
        rdctl r4, ipending
  74:	0009313a 	rdctl	r4,ipending
        andi  r2, r5, 1
  78:	2880004c 	andi	r2,r5,1
        beq   r2, zero, .Lnot_irq
  7c:	10000326 	beq	r2,zero,8c <alt_exception+0x6c>
        beq   r4, zero, .Lnot_irq
  80:	20000226 	beq	r4,zero,8c <alt_exception+0x6c>
        /*
         * Now that all necessary registers have been preserved, call 
         * alt_irq_handler() to process the interrupts.
         */

        call alt_irq_handler
  84:	00000fc0 	call	fc <alt_irq_handler>

        .section .exceptions.irqreturn, "xa"

        br    .Lexception_exit
  88:	00000706 	br	a8 <alt_exception+0x88>
         * upon completion, so we write ea (address of instruction *after*
         * the one where the exception occured) into 72(sp). The actual
         * instruction that caused the exception is written in r2, which these
         * handlers will utilize.
         */
        stw ea, 72(sp) /* EA is PC+4 so will skip over instruction causing exception */
  8c:	df401215 	stw	ea,72(sp)
.Lunknown_16bit:
        addi.n r4, r4, 2 /* Need PC+2 to skip over instruction causing exception */
        stw r4, 72(sp)

#else /* CDX is not Enabled and all instructions are 32bits */
        ldw r2, -4(ea) /* Instruction value that caused exception */
  90:	e8bfff17 	ldw	r2,-4(ea)
         * debugger is present) or go into an infinite loop since the
         * handling behavior is undefined; in that case we will not return here.
         */

        /* Load exception-causing address as first argument (r4) */
        addi   r4, ea, -4
  94:	e93fff04 	addi	r4,ea,-4

        /* Call the instruction-exception entry */
        call   alt_instruction_exception_entry
  98:	00001d00 	call	1d0 <alt_instruction_exception_entry>
         * instruction
         *
         * Return code was 0: Skip. The instruction after the exception is
         * already stored in 72(sp).
         */
        bne   r2, r0, .Lexception_exit
  9c:	1000021e 	bne	r2,zero,a8 <alt_exception+0x88>

        /*
         * Otherwise, modify 72(sp) to re-issue the instruction that caused the
         * exception.
         */
        addi  r15, ea, -4  /* instruction that caused exception */
  a0:	ebffff04 	addi	r15,ea,-4
        stw   r15,  72(sp)
  a4:	dbc01215 	stw	r15,72(sp)
        /* 
         * Restore the saved registers, so that all general purpose registers 
         * have been restored to their state at the time the interrupt occured.
         */

        ldw   r5,  68(sp)
  a8:	d9401117 	ldw	r5,68(sp)
        ldw   ea,  72(sp)  /* This becomes the PC once eret is executed */
  ac:	df401217 	ldw	ea,72(sp)
        ldw   ra,   0(sp)
  b0:	dfc00017 	ldw	ra,0(sp)

        wrctl estatus, r5
  b4:	2801707a 	wrctl	estatus,r5

        ldw   r1,   8(sp)
  b8:	d8400217 	ldw	at,8(sp)
        ldw   r2,  12(sp)
  bc:	d8800317 	ldw	r2,12(sp)
        ldw   r3,  16(sp)
  c0:	d8c00417 	ldw	r3,16(sp)
        ldw   r4,  20(sp)
  c4:	d9000517 	ldw	r4,20(sp)
        ldw   r5,  24(sp)
  c8:	d9400617 	ldw	r5,24(sp)
        ldw   r6,  28(sp)
  cc:	d9800717 	ldw	r6,28(sp)
        ldw   r7,  32(sp)
  d0:	d9c00817 	ldw	r7,32(sp)

#if defined(ALT_EXCEPTION_STACK) && defined(ALT_STACK_CHECK)
        ldw   et, %gprel(alt_exception_old_stack_limit)(gp)
#endif

        ldw   r8,  36(sp)
  d4:	da000917 	ldw	r8,36(sp)
        ldw   r9,  40(sp)
  d8:	da400a17 	ldw	r9,40(sp)
        ldw   r10, 44(sp)
  dc:	da800b17 	ldw	r10,44(sp)
        ldw   r11, 48(sp)
  e0:	dac00c17 	ldw	r11,48(sp)
        ldw   r12, 52(sp)
  e4:	db000d17 	ldw	r12,52(sp)
        ldw   r13, 56(sp)
  e8:	db400e17 	ldw	r13,56(sp)
        ldw   r14, 60(sp)
  ec:	db800f17 	ldw	r14,60(sp)
        ldw   r15, 64(sp)
  f0:	dbc01017 	ldw	r15,64(sp)
        stw   et, %gprel(alt_stack_limit_value)(gp)
        stw   zero, %gprel(alt_exception_old_stack_limit)(gp)
#endif /* ALT_STACK_CHECK */
        ldw   sp,  76(sp)
#else /* ALT_EXCEPTION_STACK disabled */
        addi  sp, sp, 76
  f4:	dec01304 	addi	sp,sp,76

        /*
         * Return to the interrupted instruction.
         */

        eret
  f8:	ef80083a 	eret

000000fc <alt_irq_handler>:
 * instruction is present if the macro ALT_CI_INTERRUPT_VECTOR defined.
 */

void alt_irq_handler (void) __attribute__ ((section (".exceptions")));
void alt_irq_handler (void)
{
  fc:	defff904 	addi	sp,sp,-28
 100:	dfc00615 	stw	ra,24(sp)
 104:	df000515 	stw	fp,20(sp)
 108:	df000504 	addi	fp,sp,20
  
  /*
   * Notify the operating system that we are at interrupt level.
   */ 
  
  ALT_OS_INT_ENTER();
 10c:	0001883a 	nop
#ifndef NIOS2_EIC_PRESENT
static ALT_INLINE alt_u32 ALT_ALWAYS_INLINE alt_irq_pending (void)
{
  alt_u32 active;

  NIOS2_READ_IPENDING (active);
 110:	0005313a 	rdctl	r2,ipending
 114:	e0bffe15 	stw	r2,-8(fp)

  return active;
 118:	e0bffe17 	ldw	r2,-8(fp)
   * Consider the case where the high priority interupt is asserted during
   * the interrupt entry sequence for a lower priority interrupt to see why
   * this is the case.
   */

  active = alt_irq_pending ();
 11c:	e0bffb15 	stw	r2,-20(fp)

  do
  {
    i = 0;
 120:	e03ffd15 	stw	zero,-12(fp)
    mask = 1;
 124:	00800044 	movi	r2,1
 128:	e0bffc15 	stw	r2,-16(fp)
     * called to clear the interrupt condition.
     */

    do
    {
      if (active & mask)
 12c:	e0fffb17 	ldw	r3,-20(fp)
 130:	e0bffc17 	ldw	r2,-16(fp)
 134:	1884703a 	and	r2,r3,r2
 138:	10001426 	beq	r2,zero,18c <alt_irq_handler+0x90>
      { 
#ifdef ALT_ENHANCED_INTERRUPT_API_PRESENT
        alt_irq[i].handler(alt_irq[i].context); 
 13c:	008000b4 	movhi	r2,2
 140:	10835904 	addi	r2,r2,3428
 144:	e0fffd17 	ldw	r3,-12(fp)
 148:	180690fa 	slli	r3,r3,3
 14c:	10c5883a 	add	r2,r2,r3
 150:	10c00017 	ldw	r3,0(r2)
 154:	008000b4 	movhi	r2,2
 158:	10835904 	addi	r2,r2,3428
 15c:	e13ffd17 	ldw	r4,-12(fp)
 160:	200890fa 	slli	r4,r4,3
 164:	1105883a 	add	r2,r2,r4
 168:	10800104 	addi	r2,r2,4
 16c:	10800017 	ldw	r2,0(r2)
 170:	1009883a 	mov	r4,r2
 174:	183ee83a 	callr	r3
#else
        alt_irq[i].handler(alt_irq[i].context, i); 
#endif
        break;
 178:	0001883a 	nop
#ifndef NIOS2_EIC_PRESENT
static ALT_INLINE alt_u32 ALT_ALWAYS_INLINE alt_irq_pending (void)
{
  alt_u32 active;

  NIOS2_READ_IPENDING (active);
 17c:	0005313a 	rdctl	r2,ipending
 180:	e0bfff15 	stw	r2,-4(fp)

  return active;
 184:	e0bfff17 	ldw	r2,-4(fp)
 188:	00000706 	br	1a8 <alt_irq_handler+0xac>
      }
      mask <<= 1;
 18c:	e0bffc17 	ldw	r2,-16(fp)
 190:	1085883a 	add	r2,r2,r2
 194:	e0bffc15 	stw	r2,-16(fp)
      i++;
 198:	e0bffd17 	ldw	r2,-12(fp)
 19c:	10800044 	addi	r2,r2,1
 1a0:	e0bffd15 	stw	r2,-12(fp)

    } while (1);
 1a4:	003fe106 	br	12c <__alt_mem_Onchip_SRAM+0xf800012c>

    active = alt_irq_pending ();
 1a8:	e0bffb15 	stw	r2,-20(fp)
    
  } while (active);
 1ac:	e0bffb17 	ldw	r2,-20(fp)
 1b0:	103fdb1e 	bne	r2,zero,120 <__alt_mem_Onchip_SRAM+0xf8000120>

  /*
   * Notify the operating system that interrupt processing is complete.
   */ 

  ALT_OS_INT_EXIT();
 1b4:	0001883a 	nop
}
 1b8:	0001883a 	nop
 1bc:	e037883a 	mov	sp,fp
 1c0:	dfc00117 	ldw	ra,4(sp)
 1c4:	df000017 	ldw	fp,0(sp)
 1c8:	dec00204 	addi	sp,sp,8
 1cc:	f800283a 	ret

000001d0 <alt_instruction_exception_entry>:
 * that handler if it has been registered. Absent a handler, it will
 * break break or hang as discussed below.
 */
int 
alt_instruction_exception_entry (alt_u32 exception_pc)
{
 1d0:	defffb04 	addi	sp,sp,-20
 1d4:	dfc00415 	stw	ra,16(sp)
 1d8:	df000315 	stw	fp,12(sp)
 1dc:	df000304 	addi	fp,sp,12
 1e0:	e13fff15 	stw	r4,-4(fp)
  cause = ( (cause & NIOS2_EXCEPTION_REG_CAUSE_MASK) >>
              NIOS2_EXCEPTION_REG_CAUSE_OFST );

  NIOS2_READ_BADADDR(badaddr);
#else
  cause = NIOS2_EXCEPTION_CAUSE_NOT_PRESENT;
 1e4:	00bfffc4 	movi	r2,-1
 1e8:	e0bffd15 	stw	r2,-12(fp)
  badaddr = 0;
 1ec:	e03ffe15 	stw	zero,-8(fp)
#endif /* NIOS2_HAS_EXTRA_EXCEPTION_INFO */

  if(alt_instruction_exception_handler) {
 1f0:	d0a72717 	ldw	r2,-25444(gp)
 1f4:	10000726 	beq	r2,zero,214 <alt_instruction_exception_entry+0x44>
     * Call handler. Its return value indicates whether the exception-causing
     * instruction should be re-issued. The code that called us,
     * alt_eceptions_entry.S, will look at this value and adjust the ea
     * register as necessary
     */
    return alt_instruction_exception_handler(cause, exception_pc, badaddr);
 1f8:	d0a72717 	ldw	r2,-25444(gp)
 1fc:	e0fffd17 	ldw	r3,-12(fp)
 200:	e1bffe17 	ldw	r6,-8(fp)
 204:	e17fff17 	ldw	r5,-4(fp)
 208:	1809883a 	mov	r4,r3
 20c:	103ee83a 	callr	r2
 210:	00000206 	br	21c <alt_instruction_exception_entry+0x4c>
   *    (a peripheral which negates its interrupt output before its
   *    interrupt handler has been executed will cause spurious interrupts)
   */
  else {
#ifdef NIOS2_HAS_DEBUG_STUB
    NIOS2_BREAK();
 214:	003da03a 	break	0
      ;
#endif /* NIOS2_HAS_DEBUG_STUB */
  }

  /* We should not get here. Remove compiler warning. */
  return NIOS2_EXCEPTION_RETURN_REISSUE_INST;
 218:	0005883a 	mov	r2,zero
}
 21c:	e037883a 	mov	sp,fp
 220:	dfc00117 	ldw	ra,4(sp)
 224:	df000017 	ldw	fp,0(sp)
 228:	dec00204 	addi	sp,sp,8
 22c:	f800283a 	ret

Disassembly of section .text:

00000230 <_start>:

    /*
     * Now that the caches are initialized, set up the stack pointer and global pointer.
     * The values provided by the linker are assumed to be correctly aligned.
     */
    movhi sp, %hi(__alt_stack_pointer)
     230:	06c10034 	movhi	sp,1024
    ori sp, sp, %lo(__alt_stack_pointer)
     234:	dec00014 	ori	sp,sp,0
    movhi gp, %hi(_gp)
     238:	068000b4 	movhi	gp,2
    ori gp, gp, %lo(_gp)
     23c:	d69c2714 	ori	gp,gp,28828
 */
#ifndef ALT_SIM_OPTIMIZE
    /* Log that the BSS is about to be cleared. */
    ALT_LOG_PUTS(alt_log_msg_bss)

    movhi r2, %hi(__bss_start)
     240:	008000b4 	movhi	r2,2
    ori r2, r2, %lo(__bss_start)
     244:	10833c14 	ori	r2,r2,3312

    movhi r3, %hi(__bss_end)
     248:	00c000b4 	movhi	r3,2
    ori r3, r3, %lo(__bss_end)
     24c:	18c39914 	ori	r3,r3,3684

    beq r2, r3, 1f
     250:	10c00326 	beq	r2,r3,260 <_start+0x30>

0:
    stw zero, (r2)
     254:	10000015 	stw	zero,0(r2)
    addi r2, r2, 4
     258:	10800104 	addi	r2,r2,4
    bltu r2, r3, 0b
     25c:	10fffd36 	bltu	r2,r3,254 <__alt_mem_Onchip_SRAM+0xf8000254>
     * section aren't defined until alt_load() has been called).
     */
    mov   et, zero
#endif

    call alt_load
     260:	00184040 	call	18404 <alt_load>

    /* Log that alt_main is about to be called. */
    ALT_LOG_PUTS(alt_log_msg_alt_main)

    /* Call the C entry point. It should never return. */
    call alt_main
     264:	00185a00 	call	185a0 <alt_main>

00000268 <alt_after_alt_main>:

    /* Wait in infinite loop in case alt_main does return. */
alt_after_alt_main:
    br alt_after_alt_main
     268:	003fff06 	br	268 <__alt_mem_Onchip_SRAM+0xf8000268>

0000026c <servo_setAngle>:
 */

#include "ServoAPI.h"


bool servo_setAngle(SERVO servo, alt_8 angle){
     26c:	defffc04 	addi	sp,sp,-16
     270:	df000315 	stw	fp,12(sp)
     274:	df000304 	addi	fp,sp,12
     278:	e13ffe15 	stw	r4,-8(fp)
     27c:	2805883a 	mov	r2,r5
     280:	e0bfff05 	stb	r2,-4(fp)
	volatile alt_u32* addr = (alt_u32*) servo;
     284:	e0bffe17 	ldw	r2,-8(fp)
     288:	e0bffd15 	stw	r2,-12(fp)
	if((angle > 45) || (angle < -45)){
     28c:	e0bfff07 	ldb	r2,-4(fp)
     290:	10800b88 	cmpgei	r2,r2,46
     294:	1000031e 	bne	r2,zero,2a4 <servo_setAngle+0x38>
     298:	e0bfff07 	ldb	r2,-4(fp)
     29c:	10bff4c8 	cmpgei	r2,r2,-45
     2a0:	1000021e 	bne	r2,zero,2ac <servo_setAngle+0x40>
		return false;
     2a4:	0005883a 	mov	r2,zero
     2a8:	00000706 	br	2c8 <servo_setAngle+0x5c>
	} else {
		*addr = ((alt_u8) (((100/45)*angle)+100));
     2ac:	e0bfff03 	ldbu	r2,-4(fp)
     2b0:	10800c84 	addi	r2,r2,50
     2b4:	1085883a 	add	r2,r2,r2
     2b8:	10c03fcc 	andi	r3,r2,255
     2bc:	e0bffd17 	ldw	r2,-12(fp)
     2c0:	10c00015 	stw	r3,0(r2)
		return true;
     2c4:	00800044 	movi	r2,1
	}
}
     2c8:	e037883a 	mov	sp,fp
     2cc:	df000017 	ldw	fp,0(sp)
     2d0:	dec00104 	addi	sp,sp,4
     2d4:	f800283a 	ret

000002d8 <servo_center>:

bool servo_center(SERVO servo){
     2d8:	defffd04 	addi	sp,sp,-12
     2dc:	df000215 	stw	fp,8(sp)
     2e0:	df000204 	addi	fp,sp,8
     2e4:	e13fff15 	stw	r4,-4(fp)
	volatile alt_u32* addr = (alt_u32*) servo;
     2e8:	e0bfff17 	ldw	r2,-4(fp)
     2ec:	e0bffe15 	stw	r2,-8(fp)
	*addr = 100;
     2f0:	e0bffe17 	ldw	r2,-8(fp)
     2f4:	00c01904 	movi	r3,100
     2f8:	10c00015 	stw	r3,0(r2)
	return true;
     2fc:	00800044 	movi	r2,1
}
     300:	e037883a 	mov	sp,fp
     304:	df000017 	ldw	fp,0(sp)
     308:	dec00104 	addi	sp,sp,4
     30c:	f800283a 	ret

00000310 <servo_pan>:

bool servo_pan(SERVO servo, alt_u32 speed, float cycles){
     310:	defffb04 	addi	sp,sp,-20
     314:	df000415 	stw	fp,16(sp)
     318:	df000404 	addi	fp,sp,16
     31c:	e13ffd15 	stw	r4,-12(fp)
     320:	e17ffe15 	stw	r5,-8(fp)
     324:	e1bfff15 	stw	r6,-4(fp)
	volatile alt_u32* addr = (alt_u32*) servo;
     328:	e0bffd17 	ldw	r2,-12(fp)
     32c:	e0bffc15 	stw	r2,-16(fp)
	//TODO
	return false;
     330:	0005883a 	mov	r2,zero
}
     334:	e037883a 	mov	sp,fp
     338:	df000017 	ldw	fp,0(sp)
     33c:	dec00104 	addi	sp,sp,4
     340:	f800283a 	ret

00000344 <servo_randomMovement>:

bool servo_randomMovement(SERVO servo){
     344:	defffc04 	addi	sp,sp,-16
     348:	dfc00315 	stw	ra,12(sp)
     34c:	df000215 	stw	fp,8(sp)
     350:	df000204 	addi	fp,sp,8
     354:	e13fff15 	stw	r4,-4(fp)
	volatile alt_u32* addr = (alt_u32*) servo;
     358:	e0bfff17 	ldw	r2,-4(fp)
     35c:	e0bffe15 	stw	r2,-8(fp)
	srand(time(0));
     360:	0009883a 	mov	r4,zero
     364:	00041f40 	call	41f4 <time>
     368:	1009883a 	mov	r4,r2
     36c:	0001cf40 	call	1cf4 <srand>
	*addr = ((alt_u8)(rand()%200));
     370:	0001d0c0 	call	1d0c <rand>
     374:	01403204 	movi	r5,200
     378:	1009883a 	mov	r4,r2
     37c:	00018440 	call	1844 <__modsi3>
     380:	10c03fcc 	andi	r3,r2,255
     384:	e0bffe17 	ldw	r2,-8(fp)
     388:	10c00015 	stw	r3,0(r2)
	return true;
     38c:	00800044 	movi	r2,1
}
     390:	e037883a 	mov	sp,fp
     394:	dfc00117 	ldw	ra,4(sp)
     398:	df000017 	ldw	fp,0(sp)
     39c:	dec00204 	addi	sp,sp,8
     3a0:	f800283a 	ret

000003a4 <clearSevenSegs>:
 */
#include "alt_types.h"
#include "SevenSegs.h"
#include <stdio.h>

void clearSevenSegs(){
     3a4:	deffff04 	addi	sp,sp,-4
     3a8:	df000015 	stw	fp,0(sp)
     3ac:	d839883a 	mov	fp,sp
	*HEX0HEX3 = 0;
     3b0:	d0a00017 	ldw	r2,-32768(gp)
     3b4:	10000015 	stw	zero,0(r2)
    *HEX4HEX5 = 0;
     3b8:	d0a00117 	ldw	r2,-32764(gp)
     3bc:	10000015 	stw	zero,0(r2)
}
     3c0:	0001883a 	nop
     3c4:	e037883a 	mov	sp,fp
     3c8:	df000017 	ldw	fp,0(sp)
     3cc:	dec00104 	addi	sp,sp,4
     3d0:	f800283a 	ret

000003d4 <ASCII_to_7Seg>:

char ASCII_to_7Seg(char c){
     3d4:	defffb04 	addi	sp,sp,-20
     3d8:	df000415 	stw	fp,16(sp)
     3dc:	df000404 	addi	fp,sp,16
     3e0:	2005883a 	mov	r2,r4
     3e4:	e0bfff05 	stb	r2,-4(fp)
	if(c != 0){
     3e8:	e0bfff07 	ldb	r2,-4(fp)
     3ec:	10000326 	beq	r2,zero,3fc <ASCII_to_7Seg+0x28>
		c -= 0x30;
     3f0:	e0bfff03 	ldbu	r2,-4(fp)
     3f4:	10bff404 	addi	r2,r2,-48
     3f8:	e0bfff05 	stb	r2,-4(fp)
	}
	char HEXMap[10] = {0b0111111,
     3fc:	00800fc4 	movi	r2,63
     400:	e0bffc05 	stb	r2,-16(fp)
     404:	00800184 	movi	r2,6
     408:	e0bffc45 	stb	r2,-15(fp)
     40c:	008016c4 	movi	r2,91
     410:	e0bffc85 	stb	r2,-14(fp)
     414:	008013c4 	movi	r2,79
     418:	e0bffcc5 	stb	r2,-13(fp)
     41c:	00801984 	movi	r2,102
     420:	e0bffd05 	stb	r2,-12(fp)
     424:	00801b44 	movi	r2,109
     428:	e0bffd45 	stb	r2,-11(fp)
     42c:	00801f04 	movi	r2,124
     430:	e0bffd85 	stb	r2,-10(fp)
     434:	008001c4 	movi	r2,7
     438:	e0bffdc5 	stb	r2,-9(fp)
     43c:	00801fc4 	movi	r2,127
     440:	e0bffe05 	stb	r2,-8(fp)
     444:	008019c4 	movi	r2,103
     448:	e0bffe45 	stb	r2,-7(fp)
			0b1101101,
			0b1111100,
			0b0000111,
			0b1111111,
			0b1100111};
	return HEXMap[c];
     44c:	e0bfff07 	ldb	r2,-4(fp)
     450:	e0fffc04 	addi	r3,fp,-16
     454:	1885883a 	add	r2,r3,r2
     458:	10800003 	ldbu	r2,0(r2)
};
     45c:	e037883a 	mov	sp,fp
     460:	df000017 	ldw	fp,0(sp)
     464:	dec00104 	addi	sp,sp,4
     468:	f800283a 	ret

0000046c <num_to_7Seg>:

void num_to_7Seg(alt_u16 num){
     46c:	defff904 	addi	sp,sp,-28
     470:	dfc00615 	stw	ra,24(sp)
     474:	df000515 	stw	fp,20(sp)
     478:	df000504 	addi	fp,sp,20
     47c:	2005883a 	mov	r2,r4
     480:	e0bfff0d 	sth	r2,-4(fp)
	char BCDOut[6] = {0};
     484:	e03ffd15 	stw	zero,-12(fp)
     488:	e03ffe0d 	sth	zero,-8(fp)
	sprintf(BCDOut, "%d", (num>9999 ? 9999 : num));
     48c:	e0bfff0b 	ldhu	r2,-4(fp)
     490:	1089c428 	cmpgeui	r2,r2,10000
     494:	1000021e 	bne	r2,zero,4a0 <num_to_7Seg+0x34>
     498:	e0bfff0b 	ldhu	r2,-4(fp)
     49c:	00000106 	br	4a4 <num_to_7Seg+0x38>
     4a0:	0089c3c4 	movi	r2,9999
     4a4:	e0fffd04 	addi	r3,fp,-12
     4a8:	100d883a 	mov	r6,r2
     4ac:	014000b4 	movhi	r5,2
     4b0:	29731b04 	addi	r5,r5,-13204
     4b4:	1809883a 	mov	r4,r3
     4b8:	0001e340 	call	1e34 <sprintf>
	alt_u32 HexOut = 0;
     4bc:	e03ffb15 	stw	zero,-20(fp)
	for(int i = 0; i <= 3; i++){
     4c0:	e03ffc15 	stw	zero,-16(fp)
     4c4:	00001d06 	br	53c <num_to_7Seg+0xd0>
		if(BCDOut[i] != 0){
     4c8:	e0fffd04 	addi	r3,fp,-12
     4cc:	e0bffc17 	ldw	r2,-16(fp)
     4d0:	1885883a 	add	r2,r3,r2
     4d4:	10800003 	ldbu	r2,0(r2)
     4d8:	10803fcc 	andi	r2,r2,255
     4dc:	1080201c 	xori	r2,r2,128
     4e0:	10bfe004 	addi	r2,r2,-128
     4e4:	10001226 	beq	r2,zero,530 <num_to_7Seg+0xc4>
			HexOut = HexOut << 8;
     4e8:	e0bffb17 	ldw	r2,-20(fp)
     4ec:	1004923a 	slli	r2,r2,8
     4f0:	e0bffb15 	stw	r2,-20(fp)
			HexOut |= ASCII_to_7Seg(BCDOut[i]);
     4f4:	e0fffd04 	addi	r3,fp,-12
     4f8:	e0bffc17 	ldw	r2,-16(fp)
     4fc:	1885883a 	add	r2,r3,r2
     500:	10800003 	ldbu	r2,0(r2)
     504:	10803fcc 	andi	r2,r2,255
     508:	1080201c 	xori	r2,r2,128
     50c:	10bfe004 	addi	r2,r2,-128
     510:	1009883a 	mov	r4,r2
     514:	00003d40 	call	3d4 <ASCII_to_7Seg>
     518:	10803fcc 	andi	r2,r2,255
     51c:	1080201c 	xori	r2,r2,128
     520:	10bfe004 	addi	r2,r2,-128
     524:	e0fffb17 	ldw	r3,-20(fp)
     528:	1884b03a 	or	r2,r3,r2
     52c:	e0bffb15 	stw	r2,-20(fp)

void num_to_7Seg(alt_u16 num){
	char BCDOut[6] = {0};
	sprintf(BCDOut, "%d", (num>9999 ? 9999 : num));
	alt_u32 HexOut = 0;
	for(int i = 0; i <= 3; i++){
     530:	e0bffc17 	ldw	r2,-16(fp)
     534:	10800044 	addi	r2,r2,1
     538:	e0bffc15 	stw	r2,-16(fp)
     53c:	e0bffc17 	ldw	r2,-16(fp)
     540:	10800110 	cmplti	r2,r2,4
     544:	103fe01e 	bne	r2,zero,4c8 <__alt_mem_Onchip_SRAM+0xf80004c8>
		if(BCDOut[i] != 0){
			HexOut = HexOut << 8;
			HexOut |= ASCII_to_7Seg(BCDOut[i]);
		}
	}
	*HEX0HEX3 = HexOut;
     548:	d0a00017 	ldw	r2,-32768(gp)
     54c:	e0fffb17 	ldw	r3,-20(fp)
     550:	10c00015 	stw	r3,0(r2)
}
     554:	0001883a 	nop
     558:	e037883a 	mov	sp,fp
     55c:	dfc00117 	ldw	ra,4(sp)
     560:	df000017 	ldw	fp,0(sp)
     564:	dec00204 	addi	sp,sp,8
     568:	f800283a 	ret

0000056c <acc_read_x>:
#include "accelerometer.h"
#include "ServoAPI.h"

 static volatile ACCELEROMETER* acceleromter = (alt_u32*) ACCELEROMETER_BASE;

 int acc_read_x(){
     56c:	defffe04 	addi	sp,sp,-8
     570:	df000115 	stw	fp,4(sp)
     574:	df000104 	addi	fp,sp,4
     acceleromter->address = DATAX0;
     578:	d0a00217 	ldw	r2,-32760(gp)
     57c:	00c00c84 	movi	r3,50
     580:	10c00005 	stb	r3,0(r2)
     alt_16 data = 0x0000|acceleromter->data;
     584:	d0a00217 	ldw	r2,-32760(gp)
     588:	10800043 	ldbu	r2,1(r2)
     58c:	10803fcc 	andi	r2,r2,255
     590:	e0bfff0d 	sth	r2,-4(fp)
     acceleromter->address = DATAX1;
     594:	d0a00217 	ldw	r2,-32760(gp)
     598:	00c00cc4 	movi	r3,51
     59c:	10c00005 	stb	r3,0(r2)
     data |= ((acceleromter->data&0x01)<<8);
     5a0:	d0a00217 	ldw	r2,-32760(gp)
     5a4:	10800043 	ldbu	r2,1(r2)
     5a8:	10803fcc 	andi	r2,r2,255
     5ac:	1080004c 	andi	r2,r2,1
     5b0:	1004923a 	slli	r2,r2,8
     5b4:	1007883a 	mov	r3,r2
     5b8:	e0bfff0b 	ldhu	r2,-4(fp)
     5bc:	1884b03a 	or	r2,r3,r2
     5c0:	e0bfff0d 	sth	r2,-4(fp)
     if(acceleromter->data&0x02 == 2){
     5c4:	d0a00217 	ldw	r2,-32760(gp)
     5c8:	10800043 	ldbu	r2,1(r2)
     5cc:	10803fcc 	andi	r2,r2,255
     5d0:	1080004c 	andi	r2,r2,1
     5d4:	10000426 	beq	r2,zero,5e8 <acc_read_x+0x7c>
         data |= (0b1111111<<9);
     5d8:	e0ffff0b 	ldhu	r3,-4(fp)
     5dc:	00bf8004 	movi	r2,-512
     5e0:	1884b03a 	or	r2,r3,r2
     5e4:	e0bfff0d 	sth	r2,-4(fp)
     }
     return (int)data;
     5e8:	e0bfff0f 	ldh	r2,-4(fp)
 }
     5ec:	e037883a 	mov	sp,fp
     5f0:	df000017 	ldw	fp,0(sp)
     5f4:	dec00104 	addi	sp,sp,4
     5f8:	f800283a 	ret

000005fc <acc_read_y>:

int acc_read_y(){
     5fc:	defffe04 	addi	sp,sp,-8
     600:	df000115 	stw	fp,4(sp)
     604:	df000104 	addi	fp,sp,4
     acceleromter->address = DATAY0;
     608:	d0a00217 	ldw	r2,-32760(gp)
     60c:	00c00d04 	movi	r3,52
     610:	10c00005 	stb	r3,0(r2)
     alt_16 data = 0x0000|acceleromter->data;
     614:	d0a00217 	ldw	r2,-32760(gp)
     618:	10800043 	ldbu	r2,1(r2)
     61c:	10803fcc 	andi	r2,r2,255
     620:	e0bfff0d 	sth	r2,-4(fp)
     acceleromter->address = DATAY1;
     624:	d0a00217 	ldw	r2,-32760(gp)
     628:	00c00d44 	movi	r3,53
     62c:	10c00005 	stb	r3,0(r2)
     data |= ((acceleromter->data&0x01)<<8);
     630:	d0a00217 	ldw	r2,-32760(gp)
     634:	10800043 	ldbu	r2,1(r2)
     638:	10803fcc 	andi	r2,r2,255
     63c:	1080004c 	andi	r2,r2,1
     640:	1004923a 	slli	r2,r2,8
     644:	1007883a 	mov	r3,r2
     648:	e0bfff0b 	ldhu	r2,-4(fp)
     64c:	1884b03a 	or	r2,r3,r2
     650:	e0bfff0d 	sth	r2,-4(fp)
     if(acceleromter->data&0x02 == 2){
     654:	d0a00217 	ldw	r2,-32760(gp)
     658:	10800043 	ldbu	r2,1(r2)
     65c:	10803fcc 	andi	r2,r2,255
     660:	1080004c 	andi	r2,r2,1
     664:	10000426 	beq	r2,zero,678 <acc_read_y+0x7c>
         data |= (0b1111111<<9);
     668:	e0ffff0b 	ldhu	r3,-4(fp)
     66c:	00bf8004 	movi	r2,-512
     670:	1884b03a 	or	r2,r3,r2
     674:	e0bfff0d 	sth	r2,-4(fp)
     }
     return (int)data;
     678:	e0bfff0f 	ldh	r2,-4(fp)
 }
     67c:	e037883a 	mov	sp,fp
     680:	df000017 	ldw	fp,0(sp)
     684:	dec00104 	addi	sp,sp,4
     688:	f800283a 	ret

0000068c <acc_read_z>:

 int acc_read_z(){
     68c:	defffe04 	addi	sp,sp,-8
     690:	df000115 	stw	fp,4(sp)
     694:	df000104 	addi	fp,sp,4
     acceleromter->address = DATAZ0;
     698:	d0a00217 	ldw	r2,-32760(gp)
     69c:	00c00d84 	movi	r3,54
     6a0:	10c00005 	stb	r3,0(r2)
     alt_16 data = 0x0000|acceleromter->data;
     6a4:	d0a00217 	ldw	r2,-32760(gp)
     6a8:	10800043 	ldbu	r2,1(r2)
     6ac:	10803fcc 	andi	r2,r2,255
     6b0:	e0bfff0d 	sth	r2,-4(fp)
     acceleromter->address = DATAZ1;
     6b4:	d0a00217 	ldw	r2,-32760(gp)
     6b8:	00c00dc4 	movi	r3,55
     6bc:	10c00005 	stb	r3,0(r2)
     data |= ((acceleromter->data&0x01)<<8);
     6c0:	d0a00217 	ldw	r2,-32760(gp)
     6c4:	10800043 	ldbu	r2,1(r2)
     6c8:	10803fcc 	andi	r2,r2,255
     6cc:	1080004c 	andi	r2,r2,1
     6d0:	1004923a 	slli	r2,r2,8
     6d4:	1007883a 	mov	r3,r2
     6d8:	e0bfff0b 	ldhu	r2,-4(fp)
     6dc:	1884b03a 	or	r2,r3,r2
     6e0:	e0bfff0d 	sth	r2,-4(fp)
     if(acceleromter->data&0x02 == 2){
     6e4:	d0a00217 	ldw	r2,-32760(gp)
     6e8:	10800043 	ldbu	r2,1(r2)
     6ec:	10803fcc 	andi	r2,r2,255
     6f0:	1080004c 	andi	r2,r2,1
     6f4:	10000426 	beq	r2,zero,708 <acc_read_z+0x7c>
         data |= (0b1111111<<9);
     6f8:	e0ffff0b 	ldhu	r3,-4(fp)
     6fc:	00bf8004 	movi	r2,-512
     700:	1884b03a 	or	r2,r3,r2
     704:	e0bfff0d 	sth	r2,-4(fp)
     }
     return (int)data;
     708:	e0bfff0f 	ldh	r2,-4(fp)
 }
     70c:	e037883a 	mov	sp,fp
     710:	df000017 	ldw	fp,0(sp)
     714:	dec00104 	addi	sp,sp,4
     718:	f800283a 	ret

0000071c <acc_steady_servo>:

 void acc_steady_servo(){
     71c:	defffe04 	addi	sp,sp,-8
     720:	dfc00115 	stw	ra,4(sp)
     724:	df000015 	stw	fp,0(sp)
     728:	d839883a 	mov	fp,sp
	 servo_setAngle(SERVO_X, (alt_8)(-acc_read_y()*0.1765));
     72c:	00005fc0 	call	5fc <acc_read_y>
     730:	0085c83a 	sub	r2,zero,r2
     734:	1009883a 	mov	r4,r2
     738:	0001a0c0 	call	1a0c <__floatsisf>
     73c:	1007883a 	mov	r3,r2
     740:	008f8d74 	movhi	r2,15925
     744:	10af1a84 	addi	r2,r2,-17302
     748:	1885ff32 	custom	252,r2,r3,r2
     74c:	1009883a 	mov	r4,r2
     750:	000199c0 	call	199c <__fixsfsi>
     754:	10803fcc 	andi	r2,r2,255
     758:	1080201c 	xori	r2,r2,128
     75c:	10bfe004 	addi	r2,r2,-128
     760:	100b883a 	mov	r5,r2
     764:	013fc834 	movhi	r4,65312
     768:	21002404 	addi	r4,r4,144
     76c:	000026c0 	call	26c <servo_setAngle>
	 servo_setAngle(SERVO_Y, (alt_8)(-acc_read_x()*0.1765));
     770:	000056c0 	call	56c <acc_read_x>
     774:	0085c83a 	sub	r2,zero,r2
     778:	1009883a 	mov	r4,r2
     77c:	0001a0c0 	call	1a0c <__floatsisf>
     780:	1007883a 	mov	r3,r2
     784:	008f8d74 	movhi	r2,15925
     788:	10af1a84 	addi	r2,r2,-17302
     78c:	1885ff32 	custom	252,r2,r3,r2
     790:	1009883a 	mov	r4,r2
     794:	000199c0 	call	199c <__fixsfsi>
     798:	10803fcc 	andi	r2,r2,255
     79c:	1080201c 	xori	r2,r2,128
     7a0:	10bfe004 	addi	r2,r2,-128
     7a4:	100b883a 	mov	r5,r2
     7a8:	013fc834 	movhi	r4,65312
     7ac:	21002804 	addi	r4,r4,160
     7b0:	000026c0 	call	26c <servo_setAngle>
 }
     7b4:	0001883a 	nop
     7b8:	e037883a 	mov	sp,fp
     7bc:	dfc00117 	ldw	ra,4(sp)
     7c0:	df000017 	ldw	fp,0(sp)
     7c4:	dec00204 	addi	sp,sp,8
     7c8:	f800283a 	ret

000007cc <adc_init>:
#include "adc.h"

static volatile ADC_SAMPLE_STORE* samples = (alt_u32*) ADC_SAMPLE_STORE_BASE;
static volatile alt_u32* sequencerCmd = (alt_u32*) ADC_SEQUENCER_BASE;

void adc_init() {
     7cc:	defffe04 	addi	sp,sp,-8
     7d0:	df000115 	stw	fp,4(sp)
     7d4:	df000104 	addi	fp,sp,4
	alt_u32 data = *sequencerCmd;
     7d8:	d0a00417 	ldw	r2,-32752(gp)
     7dc:	10800017 	ldw	r2,0(r2)
     7e0:	e0bfff15 	stw	r2,-4(fp)
	data = (data&0xF) | 0b0001;
     7e4:	e0bfff17 	ldw	r2,-4(fp)
     7e8:	1080038c 	andi	r2,r2,14
     7ec:	10800054 	ori	r2,r2,1
     7f0:	e0bfff15 	stw	r2,-4(fp)
	*sequencerCmd = data;
     7f4:	d0a00417 	ldw	r2,-32752(gp)
     7f8:	e0ffff17 	ldw	r3,-4(fp)
     7fc:	10c00015 	stw	r3,0(r2)
}
     800:	0001883a 	nop
     804:	e037883a 	mov	sp,fp
     808:	df000017 	ldw	fp,0(sp)
     80c:	dec00104 	addi	sp,sp,4
     810:	f800283a 	ret

00000814 <read_channel1>:

alt_u16 read_channel1() {
     814:	defffe04 	addi	sp,sp,-8
     818:	df000115 	stw	fp,4(sp)
     81c:	df000104 	addi	fp,sp,4
    alt_u32 data = samples->slot0;
     820:	d0a00317 	ldw	r2,-32756(gp)
     824:	10800017 	ldw	r2,0(r2)
     828:	e0bfff15 	stw	r2,-4(fp)
    data &= 0xFFF;
     82c:	e0bfff17 	ldw	r2,-4(fp)
     830:	1083ffcc 	andi	r2,r2,4095
     834:	e0bfff15 	stw	r2,-4(fp)
    return data;
     838:	e0bfff17 	ldw	r2,-4(fp)
}
     83c:	e037883a 	mov	sp,fp
     840:	df000017 	ldw	fp,0(sp)
     844:	dec00104 	addi	sp,sp,4
     848:	f800283a 	ret

0000084c <read_channel2>:

alt_u16 read_channel2() {
     84c:	defffe04 	addi	sp,sp,-8
     850:	df000115 	stw	fp,4(sp)
     854:	df000104 	addi	fp,sp,4
    alt_u32 data = samples->slot1;
     858:	d0a00317 	ldw	r2,-32756(gp)
     85c:	10800117 	ldw	r2,4(r2)
     860:	e0bfff15 	stw	r2,-4(fp)
    data &= 0xFFF;
     864:	e0bfff17 	ldw	r2,-4(fp)
     868:	1083ffcc 	andi	r2,r2,4095
     86c:	e0bfff15 	stw	r2,-4(fp)
    return data;
     870:	e0bfff17 	ldw	r2,-4(fp)
}
     874:	e037883a 	mov	sp,fp
     878:	df000017 	ldw	fp,0(sp)
     87c:	dec00104 	addi	sp,sp,4
     880:	f800283a 	ret

00000884 <read_joystick>:

void read_joystick() {
     884:	defffe04 	addi	sp,sp,-8
     888:	dfc00115 	stw	ra,4(sp)
     88c:	df000015 	stw	fp,0(sp)
     890:	d839883a 	mov	fp,sp
	servo_setAngle(SERVO_Y, (alt_8) (read_channel1() / 4000.0 * 90 - 45));
     894:	00008140 	call	814 <read_channel1>
     898:	10bfffcc 	andi	r2,r2,65535
     89c:	1009883a 	mov	r4,r2
     8a0:	0001a0c0 	call	1a0c <__floatsisf>
     8a4:	1007883a 	mov	r3,r2
     8a8:	00915eb4 	movhi	r2,17786
     8ac:	1887fff2 	custom	255,r3,r3,r2
     8b0:	0090ad34 	movhi	r2,17076
     8b4:	1887ff32 	custom	252,r3,r3,r2
     8b8:	00908d34 	movhi	r2,16948
     8bc:	1885ffb2 	custom	254,r2,r3,r2
     8c0:	1009883a 	mov	r4,r2
     8c4:	000199c0 	call	199c <__fixsfsi>
     8c8:	10803fcc 	andi	r2,r2,255
     8cc:	1080201c 	xori	r2,r2,128
     8d0:	10bfe004 	addi	r2,r2,-128
     8d4:	100b883a 	mov	r5,r2
     8d8:	013fc834 	movhi	r4,65312
     8dc:	21002804 	addi	r4,r4,160
     8e0:	000026c0 	call	26c <servo_setAngle>
	servo_setAngle(SERVO_X, (alt_8) (read_channel2() / 4000.0 * 90 - 45));
     8e4:	000084c0 	call	84c <read_channel2>
     8e8:	10bfffcc 	andi	r2,r2,65535
     8ec:	1009883a 	mov	r4,r2
     8f0:	0001a0c0 	call	1a0c <__floatsisf>
     8f4:	1007883a 	mov	r3,r2
     8f8:	00915eb4 	movhi	r2,17786
     8fc:	1887fff2 	custom	255,r3,r3,r2
     900:	0090ad34 	movhi	r2,17076
     904:	1887ff32 	custom	252,r3,r3,r2
     908:	00908d34 	movhi	r2,16948
     90c:	1885ffb2 	custom	254,r2,r3,r2
     910:	1009883a 	mov	r4,r2
     914:	000199c0 	call	199c <__fixsfsi>
     918:	10803fcc 	andi	r2,r2,255
     91c:	1080201c 	xori	r2,r2,128
     920:	10bfe004 	addi	r2,r2,-128
     924:	100b883a 	mov	r5,r2
     928:	013fc834 	movhi	r4,65312
     92c:	21002404 	addi	r4,r4,144
     930:	000026c0 	call	26c <servo_setAngle>
}
     934:	0001883a 	nop
     938:	e037883a 	mov	sp,fp
     93c:	dfc00117 	ldw	ra,4(sp)
     940:	df000017 	ldw	fp,0(sp)
     944:	dec00204 	addi	sp,sp,8
     948:	f800283a 	ret

0000094c <delay_1s>:
 */

#include "alt_types.h"
#include "delay.h"  //include declaration header file

void delay_1s(alt_u32 n){
     94c:	defffc04 	addi	sp,sp,-16
     950:	dfc00315 	stw	ra,12(sp)
     954:	df000215 	stw	fp,8(sp)
     958:	df000204 	addi	fp,sp,8
     95c:	e13fff15 	stw	r4,-4(fp)
	int i = 500000*n;
     960:	01400234 	movhi	r5,8
     964:	29684804 	addi	r5,r5,-24288
     968:	e13fff17 	ldw	r4,-4(fp)
     96c:	00019740 	call	1974 <__mulsi3>
     970:	e0bffe15 	stw	r2,-8(fp)
	while(i>0){
     974:	00000306 	br	984 <delay_1s+0x38>
		i--;
     978:	e0bffe17 	ldw	r2,-8(fp)
     97c:	10bfffc4 	addi	r2,r2,-1
     980:	e0bffe15 	stw	r2,-8(fp)
#include "alt_types.h"
#include "delay.h"  //include declaration header file

void delay_1s(alt_u32 n){
	int i = 500000*n;
	while(i>0){
     984:	e0bffe17 	ldw	r2,-8(fp)
     988:	00bffb16 	blt	zero,r2,978 <__alt_mem_Onchip_SRAM+0xf8000978>
		i--;
	}
}
     98c:	0001883a 	nop
     990:	e037883a 	mov	sp,fp
     994:	dfc00117 	ldw	ra,4(sp)
     998:	df000017 	ldw	fp,0(sp)
     99c:	dec00204 	addi	sp,sp,8
     9a0:	f800283a 	ret

000009a4 <delay_1ms>:
void delay_1ms(alt_u32 n){
     9a4:	defffc04 	addi	sp,sp,-16
     9a8:	dfc00315 	stw	ra,12(sp)
     9ac:	df000215 	stw	fp,8(sp)
     9b0:	df000204 	addi	fp,sp,8
     9b4:	e13fff15 	stw	r4,-4(fp)
	int i = 500*n;
     9b8:	01407d04 	movi	r5,500
     9bc:	e13fff17 	ldw	r4,-4(fp)
     9c0:	00019740 	call	1974 <__mulsi3>
     9c4:	e0bffe15 	stw	r2,-8(fp)
	while(i>0){
     9c8:	00000306 	br	9d8 <delay_1ms+0x34>
		i--;
     9cc:	e0bffe17 	ldw	r2,-8(fp)
     9d0:	10bfffc4 	addi	r2,r2,-1
     9d4:	e0bffe15 	stw	r2,-8(fp)
		i--;
	}
}
void delay_1ms(alt_u32 n){
	int i = 500*n;
	while(i>0){
     9d8:	e0bffe17 	ldw	r2,-8(fp)
     9dc:	00bffb16 	blt	zero,r2,9cc <__alt_mem_Onchip_SRAM+0xf80009cc>
		i--;
	}
}
     9e0:	0001883a 	nop
     9e4:	e037883a 	mov	sp,fp
     9e8:	dfc00117 	ldw	ra,4(sp)
     9ec:	df000017 	ldw	fp,0(sp)
     9f0:	dec00204 	addi	sp,sp,8
     9f4:	f800283a 	ret

000009f8 <cam_write>:
ALT_AVALON_I2C_DEV_t *i2c_dev;  //pointer to instance structure



int cam_write(uint8_t reg, uint8_t data)
{
     9f8:	defffa04 	addi	sp,sp,-24
     9fc:	dfc00515 	stw	ra,20(sp)
     a00:	df000415 	stw	fp,16(sp)
     a04:	df000404 	addi	fp,sp,16
     a08:	2007883a 	mov	r3,r4
     a0c:	2805883a 	mov	r2,r5
     a10:	e0fffe05 	stb	r3,-8(fp)
     a14:	e0bfff05 	stb	r2,-4(fp)
	int status;
	uint8_t txbuf[2];
	txbuf[0]=reg;
     a18:	e0bffe03 	ldbu	r2,-8(fp)
     a1c:	e0bffd05 	stb	r2,-12(fp)
	txbuf[1]=data;
     a20:	e0bfff03 	ldbu	r2,-4(fp)
     a24:	e0bffd45 	stb	r2,-11(fp)

	status=alt_avalon_i2c_master_tx(i2c_dev,txbuf, 2, ALT_AVALON_I2C_NO_INTERRUPTS);
     a28:	d0a71517 	ldw	r2,-25516(gp)
     a2c:	e0fffd04 	addi	r3,fp,-12
     a30:	000f883a 	mov	r7,zero
     a34:	01800084 	movi	r6,2
     a38:	180b883a 	mov	r5,r3
     a3c:	1009883a 	mov	r4,r2
     a40:	00199f80 	call	199f8 <alt_avalon_i2c_master_tx>
     a44:	e0bffc15 	stw	r2,-16(fp)
	if (status!=ALT_AVALON_I2C_SUCCESS) return 1; //FAIL
     a48:	e0bffc17 	ldw	r2,-16(fp)
     a4c:	10000226 	beq	r2,zero,a58 <cam_write+0x60>
     a50:	00800044 	movi	r2,1
     a54:	00000106 	br	a5c <cam_write+0x64>
	return 0;
     a58:	0005883a 	mov	r2,zero
}
     a5c:	e037883a 	mov	sp,fp
     a60:	dfc00117 	ldw	ra,4(sp)
     a64:	df000017 	ldw	fp,0(sp)
     a68:	dec00204 	addi	sp,sp,8
     a6c:	f800283a 	ret

00000a70 <cam_read>:


int cam_read(uint8_t reg, uint8_t* data)
{
     a70:	defffb04 	addi	sp,sp,-20
     a74:	dfc00415 	stw	ra,16(sp)
     a78:	df000315 	stw	fp,12(sp)
     a7c:	df000304 	addi	fp,sp,12
     a80:	2005883a 	mov	r2,r4
     a84:	e17fff15 	stw	r5,-4(fp)
     a88:	e0bffe05 	stb	r2,-8(fp)
	int status;
	status = alt_avalon_i2c_master_tx(i2c_dev, &reg, 1, ALT_AVALON_I2C_NO_INTERRUPTS);
     a8c:	d0a71517 	ldw	r2,-25516(gp)
     a90:	e0fffe04 	addi	r3,fp,-8
     a94:	000f883a 	mov	r7,zero
     a98:	01800044 	movi	r6,1
     a9c:	180b883a 	mov	r5,r3
     aa0:	1009883a 	mov	r4,r2
     aa4:	00199f80 	call	199f8 <alt_avalon_i2c_master_tx>
     aa8:	e0bffd15 	stw	r2,-12(fp)
	if (status!=ALT_AVALON_I2C_SUCCESS) return 1; //FAIL
     aac:	e0bffd17 	ldw	r2,-12(fp)
     ab0:	10000226 	beq	r2,zero,abc <cam_read+0x4c>
     ab4:	00800044 	movi	r2,1
     ab8:	00000c06 	br	aec <cam_read+0x7c>
	status = alt_avalon_i2c_master_rx(i2c_dev, data, 1, ALT_AVALON_I2C_NO_INTERRUPTS);
     abc:	d0a71517 	ldw	r2,-25516(gp)
     ac0:	000f883a 	mov	r7,zero
     ac4:	01800044 	movi	r6,1
     ac8:	e17fff17 	ldw	r5,-4(fp)
     acc:	1009883a 	mov	r4,r2
     ad0:	0019ae00 	call	19ae0 <alt_avalon_i2c_master_rx>
     ad4:	e0bffd15 	stw	r2,-12(fp)
	//status=alt_avalon_i2c_master_tx_rx(i2c_dev, &reg, 1, data, 1, ALT_AVALON_I2C_NO_INTERRUPTS);
	if (status!=ALT_AVALON_I2C_SUCCESS) return 2; //FAIL
     ad8:	e0bffd17 	ldw	r2,-12(fp)
     adc:	10000226 	beq	r2,zero,ae8 <cam_read+0x78>
     ae0:	00800084 	movi	r2,2
     ae4:	00000106 	br	aec <cam_read+0x7c>
	return 0;
     ae8:	0005883a 	mov	r2,zero
}
     aec:	e037883a 	mov	sp,fp
     af0:	dfc00117 	ldw	ra,4(sp)
     af4:	df000017 	ldw	fp,0(sp)
     af8:	dec00204 	addi	sp,sp,8
     afc:	f800283a 	ret

00000b00 <cam_write_1>:


void cam_write_1()
{
     b00:	defffe04 	addi	sp,sp,-8
     b04:	dfc00115 	stw	ra,4(sp)
     b08:	df000015 	stw	fp,0(sp)
     b0c:	d839883a 	mov	fp,sp
	cam_write( REG_COM7, COM7_RGB ); /* Selects RGB mode */
     b10:	01400104 	movi	r5,4
     b14:	01000484 	movi	r4,18
     b18:	00009f80 	call	9f8 <cam_write>
	cam_write( REG_RGB444, 0 );	/* No RGB444 please */
     b1c:	000b883a 	mov	r5,zero
     b20:	01002304 	movi	r4,140
     b24:	00009f80 	call	9f8 <cam_write>
	cam_write( REG_COM1, 0x0 );	/* CCIR601 */
     b28:	000b883a 	mov	r5,zero
     b2c:	01000104 	movi	r4,4
     b30:	00009f80 	call	9f8 <cam_write>
	cam_write( REG_COM15, COM15_RGB565 );
     b34:	01400404 	movi	r5,16
     b38:	01001004 	movi	r4,64
     b3c:	00009f80 	call	9f8 <cam_write>
	cam_write( REG_COM9, 0x38 ); 	/* 16x gain ceiling; 0x8 is reserved bit */
     b40:	01400e04 	movi	r5,56
     b44:	01000504 	movi	r4,20
     b48:	00009f80 	call	9f8 <cam_write>
	cam_write( 0x4f, 0xb3 ); 	/* "matrix coefficient 1" */
     b4c:	01402cc4 	movi	r5,179
     b50:	010013c4 	movi	r4,79
     b54:	00009f80 	call	9f8 <cam_write>
	cam_write( 0x50, 0xb3 ); 	/* "matrix coefficient 2" */
     b58:	01402cc4 	movi	r5,179
     b5c:	01001404 	movi	r4,80
     b60:	00009f80 	call	9f8 <cam_write>
	cam_write( 0x51, 0    );		/* vb */
     b64:	000b883a 	mov	r5,zero
     b68:	01001444 	movi	r4,81
     b6c:	00009f80 	call	9f8 <cam_write>
	cam_write( 0x52, 0x3d ); 	/* "matrix coefficient 4" */
     b70:	01400f44 	movi	r5,61
     b74:	01001484 	movi	r4,82
     b78:	00009f80 	call	9f8 <cam_write>
	cam_write( 0x53, 0xa7 ); 	/* "matrix coefficient 5" */
     b7c:	014029c4 	movi	r5,167
     b80:	010014c4 	movi	r4,83
     b84:	00009f80 	call	9f8 <cam_write>
	cam_write( 0x54, 0xe4 ); 	/* "matrix coefficient 6" */
     b88:	01403904 	movi	r5,228
     b8c:	01001504 	movi	r4,84
     b90:	00009f80 	call	9f8 <cam_write>
	cam_write( REG_COM13, COM13_GAMMA|COM13_UVSAT );
     b94:	01403004 	movi	r5,192
     b98:	01000f44 	movi	r4,61
     b9c:	00009f80 	call	9f8 <cam_write>

}
     ba0:	0001883a 	nop
     ba4:	e037883a 	mov	sp,fp
     ba8:	dfc00117 	ldw	ra,4(sp)
     bac:	df000017 	ldw	fp,0(sp)
     bb0:	dec00204 	addi	sp,sp,8
     bb4:	f800283a 	ret

00000bb8 <cam_write_2>:


void cam_write_2()
{
     bb8:	defffe04 	addi	sp,sp,-8
     bbc:	dfc00115 	stw	ra,4(sp)
     bc0:	df000015 	stw	fp,0(sp)
     bc4:	d839883a 	mov	fp,sp
	cam_write( REG_CLKRC, 0x1 );	/* OV: clock scale (30 fps) */
     bc8:	01400044 	movi	r5,1
     bcc:	01000444 	movi	r4,17
     bd0:	00009f80 	call	9f8 <cam_write>
	cam_write( REG_TSLB,  0x04 );	/* OV */
     bd4:	01400104 	movi	r5,4
     bd8:	01000e84 	movi	r4,58
     bdc:	00009f80 	call	9f8 <cam_write>
cam_write( REG_COM7, 0 );	/* VGA */
     be0:	000b883a 	mov	r5,zero
     be4:	01000484 	movi	r4,18
     be8:	00009f80 	call	9f8 <cam_write>
/*
 * Set the hardware window.  These values from OV don't entirely
 * make sense - hstop is less than hstart.  But they work...
 */
cam_write( REG_HSTART, 0x13 );
     bec:	014004c4 	movi	r5,19
     bf0:	010005c4 	movi	r4,23
     bf4:	00009f80 	call	9f8 <cam_write>
cam_write( REG_HSTOP, 0x01 );
     bf8:	01400044 	movi	r5,1
     bfc:	01000604 	movi	r4,24
     c00:	00009f80 	call	9f8 <cam_write>
cam_write( REG_HREF, 0xb6 );
     c04:	01402d84 	movi	r5,182
     c08:	01000c84 	movi	r4,50
     c0c:	00009f80 	call	9f8 <cam_write>
cam_write( REG_VSTART, 0x02 );
     c10:	01400084 	movi	r5,2
     c14:	01000644 	movi	r4,25
     c18:	00009f80 	call	9f8 <cam_write>
cam_write( REG_VSTOP, 0x7a );
     c1c:	01401e84 	movi	r5,122
     c20:	01000684 	movi	r4,26
     c24:	00009f80 	call	9f8 <cam_write>
cam_write( REG_VREF, 0x0a );
     c28:	01400284 	movi	r5,10
     c2c:	010000c4 	movi	r4,3
     c30:	00009f80 	call	9f8 <cam_write>
cam_write( REG_COM3, 0 );
     c34:	000b883a 	mov	r5,zero
     c38:	01000304 	movi	r4,12
     c3c:	00009f80 	call	9f8 <cam_write>
cam_write( REG_COM14, 0 );
     c40:	000b883a 	mov	r5,zero
     c44:	01000f84 	movi	r4,62
     c48:	00009f80 	call	9f8 <cam_write>
/* Mystery scaling numbers */
cam_write( 0x70, 0x3a );
     c4c:	01400e84 	movi	r5,58
     c50:	01001c04 	movi	r4,112
     c54:	00009f80 	call	9f8 <cam_write>
cam_write( 0x71, 0x35 );
     c58:	01400d44 	movi	r5,53
     c5c:	01001c44 	movi	r4,113
     c60:	00009f80 	call	9f8 <cam_write>
cam_write( 0x72, 0x11 );
     c64:	01400444 	movi	r5,17
     c68:	01001c84 	movi	r4,114
     c6c:	00009f80 	call	9f8 <cam_write>
cam_write( 0x73, 0xf0 );
     c70:	01403c04 	movi	r5,240
     c74:	01001cc4 	movi	r4,115
     c78:	00009f80 	call	9f8 <cam_write>
cam_write( 0xa2, 0x02 );
     c7c:	01400084 	movi	r5,2
     c80:	01002884 	movi	r4,162
     c84:	00009f80 	call	9f8 <cam_write>
cam_write( REG_COM10, 0x0 );
     c88:	000b883a 	mov	r5,zero
     c8c:	01000544 	movi	r4,21
     c90:	00009f80 	call	9f8 <cam_write>
/* Gamma curve values */
cam_write( 0x7a, 0x20 );
     c94:	01400804 	movi	r5,32
     c98:	01001e84 	movi	r4,122
     c9c:	00009f80 	call	9f8 <cam_write>
cam_write( 0x7b, 0x10 );
     ca0:	01400404 	movi	r5,16
     ca4:	01001ec4 	movi	r4,123
     ca8:	00009f80 	call	9f8 <cam_write>
cam_write( 0x7c, 0x1e );
     cac:	01400784 	movi	r5,30
     cb0:	01001f04 	movi	r4,124
     cb4:	00009f80 	call	9f8 <cam_write>
cam_write( 0x7d, 0x35 );
     cb8:	01400d44 	movi	r5,53
     cbc:	01001f44 	movi	r4,125
     cc0:	00009f80 	call	9f8 <cam_write>
cam_write( 0x7e, 0x5a );
     cc4:	01401684 	movi	r5,90
     cc8:	01001f84 	movi	r4,126
     ccc:	00009f80 	call	9f8 <cam_write>
cam_write( 0x7f, 0x69 );
     cd0:	01401a44 	movi	r5,105
     cd4:	01001fc4 	movi	r4,127
     cd8:	00009f80 	call	9f8 <cam_write>
cam_write( 0x80, 0x76 );
     cdc:	01401d84 	movi	r5,118
     ce0:	01002004 	movi	r4,128
     ce4:	00009f80 	call	9f8 <cam_write>
cam_write( 0x81, 0x80 );
     ce8:	01402004 	movi	r5,128
     cec:	01002044 	movi	r4,129
     cf0:	00009f80 	call	9f8 <cam_write>
cam_write( 0x82, 0x88 );
     cf4:	01402204 	movi	r5,136
     cf8:	01002084 	movi	r4,130
     cfc:	00009f80 	call	9f8 <cam_write>
cam_write( 0x83, 0x8f );
     d00:	014023c4 	movi	r5,143
     d04:	010020c4 	movi	r4,131
     d08:	00009f80 	call	9f8 <cam_write>
cam_write( 0x84, 0x96 );
     d0c:	01402584 	movi	r5,150
     d10:	01002104 	movi	r4,132
     d14:	00009f80 	call	9f8 <cam_write>
cam_write( 0x85, 0xa3 );
     d18:	014028c4 	movi	r5,163
     d1c:	01002144 	movi	r4,133
     d20:	00009f80 	call	9f8 <cam_write>
cam_write( 0x86, 0xaf );
     d24:	01402bc4 	movi	r5,175
     d28:	01002184 	movi	r4,134
     d2c:	00009f80 	call	9f8 <cam_write>
cam_write( 0x87, 0xc4 );
     d30:	01403104 	movi	r5,196
     d34:	010021c4 	movi	r4,135
     d38:	00009f80 	call	9f8 <cam_write>
cam_write( 0x88, 0xd7 );
     d3c:	014035c4 	movi	r5,215
     d40:	01002204 	movi	r4,136
     d44:	00009f80 	call	9f8 <cam_write>
cam_write( 0x89, 0xe8 );
     d48:	01403a04 	movi	r5,232
     d4c:	01002244 	movi	r4,137
     d50:	00009f80 	call	9f8 <cam_write>
/* AGC and AEC parameters.  Note we start by disabling those features,
   then turn them only after tweaking the values. */
cam_write( REG_COM8, COM8_FASTAEC | COM8_AECSTEP | COM8_BFILT );
     d54:	01403804 	movi	r5,224
     d58:	010004c4 	movi	r4,19
     d5c:	00009f80 	call	9f8 <cam_write>
cam_write( REG_GAIN, 0 );
     d60:	000b883a 	mov	r5,zero
     d64:	0009883a 	mov	r4,zero
     d68:	00009f80 	call	9f8 <cam_write>
cam_write( REG_AECH, 0 );
     d6c:	000b883a 	mov	r5,zero
     d70:	01000404 	movi	r4,16
     d74:	00009f80 	call	9f8 <cam_write>
cam_write( REG_COM4, 0x40 ); /* magic reserved bit */
     d78:	01401004 	movi	r5,64
     d7c:	01000344 	movi	r4,13
     d80:	00009f80 	call	9f8 <cam_write>
cam_write( REG_COM9, 0x18 ); /* 4x gain + magic rsvd bit */
     d84:	01400604 	movi	r5,24
     d88:	01000504 	movi	r4,20
     d8c:	00009f80 	call	9f8 <cam_write>
cam_write( REG_BD50MAX, 0x05 );
     d90:	01400144 	movi	r5,5
     d94:	01002944 	movi	r4,165
     d98:	00009f80 	call	9f8 <cam_write>
cam_write( REG_BD60MAX, 0x07 );
     d9c:	014001c4 	movi	r5,7
     da0:	01002ac4 	movi	r4,171
     da4:	00009f80 	call	9f8 <cam_write>
cam_write( REG_AEW, 0x95 );
     da8:	01402544 	movi	r5,149
     dac:	01000904 	movi	r4,36
     db0:	00009f80 	call	9f8 <cam_write>
cam_write( REG_AEB, 0x33 );
     db4:	01400cc4 	movi	r5,51
     db8:	01000944 	movi	r4,37
     dbc:	00009f80 	call	9f8 <cam_write>
cam_write( REG_VPT, 0xe3 );
     dc0:	014038c4 	movi	r5,227
     dc4:	01000984 	movi	r4,38
     dc8:	00009f80 	call	9f8 <cam_write>
cam_write( REG_HAECC1, 0x78 );
     dcc:	01401e04 	movi	r5,120
     dd0:	010027c4 	movi	r4,159
     dd4:	00009f80 	call	9f8 <cam_write>
cam_write( REG_HAECC2, 0x68 );
     dd8:	01401a04 	movi	r5,104
     ddc:	01002804 	movi	r4,160
     de0:	00009f80 	call	9f8 <cam_write>
cam_write( 0xa1, 0x03 ); /* magic */
     de4:	014000c4 	movi	r5,3
     de8:	01002844 	movi	r4,161
     dec:	00009f80 	call	9f8 <cam_write>
cam_write( REG_HAECC3, 0xd8 );
     df0:	01403604 	movi	r5,216
     df4:	01002984 	movi	r4,166
     df8:	00009f80 	call	9f8 <cam_write>
cam_write( REG_HAECC4, 0xd8 );
     dfc:	01403604 	movi	r5,216
     e00:	010029c4 	movi	r4,167
     e04:	00009f80 	call	9f8 <cam_write>
cam_write( REG_HAECC5, 0xf0 );
     e08:	01403c04 	movi	r5,240
     e0c:	01002a04 	movi	r4,168
     e10:	00009f80 	call	9f8 <cam_write>
cam_write( REG_HAECC6, 0x90 );
     e14:	01402404 	movi	r5,144
     e18:	01002a44 	movi	r4,169
     e1c:	00009f80 	call	9f8 <cam_write>
cam_write( REG_HAECC7, 0x94 );
     e20:	01402504 	movi	r5,148
     e24:	01002a84 	movi	r4,170
     e28:	00009f80 	call	9f8 <cam_write>
cam_write( REG_COM8, COM8_FASTAEC|COM8_AECSTEP|COM8_BFILT|COM8_AGC|COM8_AEC );
     e2c:	01403944 	movi	r5,229
     e30:	010004c4 	movi	r4,19
     e34:	00009f80 	call	9f8 <cam_write>
/* Almost all of these are magic "reserved" values.  */
cam_write( REG_COM5, 0x61 );
     e38:	01401844 	movi	r5,97
     e3c:	01000384 	movi	r4,14
     e40:	00009f80 	call	9f8 <cam_write>
cam_write( REG_COM6, 0x4b );
     e44:	014012c4 	movi	r5,75
     e48:	010003c4 	movi	r4,15
     e4c:	00009f80 	call	9f8 <cam_write>
cam_write( 0x16, 0x02 );
     e50:	01400084 	movi	r5,2
     e54:	01000584 	movi	r4,22
     e58:	00009f80 	call	9f8 <cam_write>
cam_write(  REG_MVFP, 0x07 );
     e5c:	014001c4 	movi	r5,7
     e60:	01000784 	movi	r4,30
     e64:	00009f80 	call	9f8 <cam_write>
cam_write( 0x21, 0x02 );
     e68:	01400084 	movi	r5,2
     e6c:	01000844 	movi	r4,33
     e70:	00009f80 	call	9f8 <cam_write>
cam_write(  0x22, 0x91 );
     e74:	01402444 	movi	r5,145
     e78:	01000884 	movi	r4,34
     e7c:	00009f80 	call	9f8 <cam_write>
cam_write( 0x29, 0x07 );
     e80:	014001c4 	movi	r5,7
     e84:	01000a44 	movi	r4,41
     e88:	00009f80 	call	9f8 <cam_write>
cam_write(  0x33, 0x0b );
     e8c:	014002c4 	movi	r5,11
     e90:	01000cc4 	movi	r4,51
     e94:	00009f80 	call	9f8 <cam_write>
cam_write( 0x35, 0x0b );
     e98:	014002c4 	movi	r5,11
     e9c:	01000d44 	movi	r4,53
     ea0:	00009f80 	call	9f8 <cam_write>
cam_write(  0x37, 0x1d );
     ea4:	01400744 	movi	r5,29
     ea8:	01000dc4 	movi	r4,55
     eac:	00009f80 	call	9f8 <cam_write>
cam_write( 0x38, 0x71 );
     eb0:	01401c44 	movi	r5,113
     eb4:	01000e04 	movi	r4,56
     eb8:	00009f80 	call	9f8 <cam_write>
cam_write(  0x39, 0x2a );
     ebc:	01400a84 	movi	r5,42
     ec0:	01000e44 	movi	r4,57
     ec4:	00009f80 	call	9f8 <cam_write>
cam_write( REG_COM12, 0x78 );
     ec8:	01401e04 	movi	r5,120
     ecc:	01000f04 	movi	r4,60
     ed0:	00009f80 	call	9f8 <cam_write>
cam_write( 0x4d, 0x40 );
     ed4:	01401004 	movi	r5,64
     ed8:	01001344 	movi	r4,77
     edc:	00009f80 	call	9f8 <cam_write>
cam_write( 0x4e, 0x20 );
     ee0:	01400804 	movi	r5,32
     ee4:	01001384 	movi	r4,78
     ee8:	00009f80 	call	9f8 <cam_write>
cam_write( REG_GFIX, 0 );
     eec:	000b883a 	mov	r5,zero
     ef0:	01001a44 	movi	r4,105
     ef4:	00009f80 	call	9f8 <cam_write>
cam_write( 0x6b, 0x4a );
     ef8:	01401284 	movi	r5,74
     efc:	01001ac4 	movi	r4,107
     f00:	00009f80 	call	9f8 <cam_write>
cam_write( 0x74, 0x10 );
     f04:	01400404 	movi	r5,16
     f08:	01001d04 	movi	r4,116
     f0c:	00009f80 	call	9f8 <cam_write>
cam_write( 0x8d, 0x4f );
     f10:	014013c4 	movi	r5,79
     f14:	01002344 	movi	r4,141
     f18:	00009f80 	call	9f8 <cam_write>
cam_write(  0x8e, 0 );
     f1c:	000b883a 	mov	r5,zero
     f20:	01002384 	movi	r4,142
     f24:	00009f80 	call	9f8 <cam_write>
cam_write( 0x8f, 0 );
     f28:	000b883a 	mov	r5,zero
     f2c:	010023c4 	movi	r4,143
     f30:	00009f80 	call	9f8 <cam_write>
cam_write( 0x90, 0 );
     f34:	000b883a 	mov	r5,zero
     f38:	01002404 	movi	r4,144
     f3c:	00009f80 	call	9f8 <cam_write>
cam_write( 0x91, 0 );
     f40:	000b883a 	mov	r5,zero
     f44:	01002444 	movi	r4,145
     f48:	00009f80 	call	9f8 <cam_write>
cam_write( 0x96, 0 );
     f4c:	000b883a 	mov	r5,zero
     f50:	01002584 	movi	r4,150
     f54:	00009f80 	call	9f8 <cam_write>
cam_write( 0x9a, 0 );
     f58:	000b883a 	mov	r5,zero
     f5c:	01002684 	movi	r4,154
     f60:	00009f80 	call	9f8 <cam_write>
cam_write(  0xb0, 0x84 );
     f64:	01402104 	movi	r5,132
     f68:	01002c04 	movi	r4,176
     f6c:	00009f80 	call	9f8 <cam_write>
cam_write( 0xb1, 0x0c );
     f70:	01400304 	movi	r5,12
     f74:	01002c44 	movi	r4,177
     f78:	00009f80 	call	9f8 <cam_write>
cam_write( 0xb2, 0x0e );
     f7c:	01400384 	movi	r5,14
     f80:	01002c84 	movi	r4,178
     f84:	00009f80 	call	9f8 <cam_write>
cam_write( 0xb3, 0x82 );
     f88:	01402084 	movi	r5,130
     f8c:	01002cc4 	movi	r4,179
     f90:	00009f80 	call	9f8 <cam_write>
cam_write( 0xb8, 0x0a );
     f94:	01400284 	movi	r5,10
     f98:	01002e04 	movi	r4,184
     f9c:	00009f80 	call	9f8 <cam_write>
/* More reserved magic, some of which tweaks white balance */
cam_write( 0x43, 0x0a );
     fa0:	01400284 	movi	r5,10
     fa4:	010010c4 	movi	r4,67
     fa8:	00009f80 	call	9f8 <cam_write>
cam_write(  0x44, 0xf0 );
     fac:	01403c04 	movi	r5,240
     fb0:	01001104 	movi	r4,68
     fb4:	00009f80 	call	9f8 <cam_write>
cam_write( 0x45, 0x34 );
     fb8:	01400d04 	movi	r5,52
     fbc:	01001144 	movi	r4,69
     fc0:	00009f80 	call	9f8 <cam_write>
cam_write(  0x46, 0x58 );
     fc4:	01401604 	movi	r5,88
     fc8:	01001184 	movi	r4,70
     fcc:	00009f80 	call	9f8 <cam_write>
cam_write( 0x47, 0x28 );
     fd0:	01400a04 	movi	r5,40
     fd4:	010011c4 	movi	r4,71
     fd8:	00009f80 	call	9f8 <cam_write>
cam_write( 0x48, 0x3a );
     fdc:	01400e84 	movi	r5,58
     fe0:	01001204 	movi	r4,72
     fe4:	00009f80 	call	9f8 <cam_write>
cam_write( 0x59, 0x88 );
     fe8:	01402204 	movi	r5,136
     fec:	01001644 	movi	r4,89
     ff0:	00009f80 	call	9f8 <cam_write>
cam_write( 0x5a, 0x88 );
     ff4:	01402204 	movi	r5,136
     ff8:	01001684 	movi	r4,90
     ffc:	00009f80 	call	9f8 <cam_write>
cam_write( 0x5b, 0x44 );
    1000:	01401104 	movi	r5,68
    1004:	010016c4 	movi	r4,91
    1008:	00009f80 	call	9f8 <cam_write>
cam_write( 0x5c, 0x67 );
    100c:	014019c4 	movi	r5,103
    1010:	01001704 	movi	r4,92
    1014:	00009f80 	call	9f8 <cam_write>
cam_write( 0x5d, 0x49 );
    1018:	01401244 	movi	r5,73
    101c:	01001744 	movi	r4,93
    1020:	00009f80 	call	9f8 <cam_write>
cam_write( 0x5e, 0x0e );
    1024:	01400384 	movi	r5,14
    1028:	01001784 	movi	r4,94
    102c:	00009f80 	call	9f8 <cam_write>
cam_write( 0x6c, 0x0a );
    1030:	01400284 	movi	r5,10
    1034:	01001b04 	movi	r4,108
    1038:	00009f80 	call	9f8 <cam_write>
cam_write(  0x6d, 0x55 );
    103c:	01401544 	movi	r5,85
    1040:	01001b44 	movi	r4,109
    1044:	00009f80 	call	9f8 <cam_write>
cam_write( 0x6e, 0x11 );
    1048:	01400444 	movi	r5,17
    104c:	01001b84 	movi	r4,110
    1050:	00009f80 	call	9f8 <cam_write>
cam_write( 0x6f, 0x9f ); /* "9e for advance AWB" */
    1054:	014027c4 	movi	r5,159
    1058:	01001bc4 	movi	r4,111
    105c:	00009f80 	call	9f8 <cam_write>
cam_write( 0x6a, 0x40 );
    1060:	01401004 	movi	r5,64
    1064:	01001a84 	movi	r4,106
    1068:	00009f80 	call	9f8 <cam_write>
cam_write( REG_BLUE, 0x40 );
    106c:	01401004 	movi	r5,64
    1070:	01000044 	movi	r4,1
    1074:	00009f80 	call	9f8 <cam_write>
cam_write( REG_RED, 0x60 );
    1078:	01401804 	movi	r5,96
    107c:	01000084 	movi	r4,2
    1080:	00009f80 	call	9f8 <cam_write>
cam_write( REG_COM8, COM8_FASTAEC|COM8_AECSTEP|COM8_BFILT|COM8_AGC|COM8_AEC|COM8_AWB );
    1084:	014039c4 	movi	r5,231
    1088:	010004c4 	movi	r4,19
    108c:	00009f80 	call	9f8 <cam_write>
/* Matrix coefficients */
cam_write( 0x4f, 0x80 );
    1090:	01402004 	movi	r5,128
    1094:	010013c4 	movi	r4,79
    1098:	00009f80 	call	9f8 <cam_write>
cam_write( 0x50, 0x80 );
    109c:	01402004 	movi	r5,128
    10a0:	01001404 	movi	r4,80
    10a4:	00009f80 	call	9f8 <cam_write>
cam_write( 0x51, 0 );
    10a8:	000b883a 	mov	r5,zero
    10ac:	01001444 	movi	r4,81
    10b0:	00009f80 	call	9f8 <cam_write>
cam_write( 0x52, 0x22 );
    10b4:	01400884 	movi	r5,34
    10b8:	01001484 	movi	r4,82
    10bc:	00009f80 	call	9f8 <cam_write>
cam_write( 0x53, 0x5e );
    10c0:	01401784 	movi	r5,94
    10c4:	010014c4 	movi	r4,83
    10c8:	00009f80 	call	9f8 <cam_write>
cam_write(  0x54, 0x80 );
    10cc:	01402004 	movi	r5,128
    10d0:	01001504 	movi	r4,84
    10d4:	00009f80 	call	9f8 <cam_write>
cam_write( 0x58, 0x9e );
    10d8:	01402784 	movi	r5,158
    10dc:	01001604 	movi	r4,88
    10e0:	00009f80 	call	9f8 <cam_write>
cam_write( REG_COM16, COM16_AWBGAIN );
    10e4:	01400204 	movi	r5,8
    10e8:	01001044 	movi	r4,65
    10ec:	00009f80 	call	9f8 <cam_write>
cam_write(  REG_EDGE, 0 );
    10f0:	000b883a 	mov	r5,zero
    10f4:	01000fc4 	movi	r4,63
    10f8:	00009f80 	call	9f8 <cam_write>
cam_write( 0x75, 0x05 );
    10fc:	01400144 	movi	r5,5
    1100:	01001d44 	movi	r4,117
    1104:	00009f80 	call	9f8 <cam_write>
cam_write(  0x76, 0xe1 );
    1108:	01403844 	movi	r5,225
    110c:	01001d84 	movi	r4,118
    1110:	00009f80 	call	9f8 <cam_write>
cam_write( 0x4c, 0 );
    1114:	000b883a 	mov	r5,zero
    1118:	01001304 	movi	r4,76
    111c:	00009f80 	call	9f8 <cam_write>
cam_write( 0x77, 0x01 );
    1120:	01400044 	movi	r5,1
    1124:	01001dc4 	movi	r4,119
    1128:	00009f80 	call	9f8 <cam_write>
cam_write( REG_COM13, 0xc3 );
    112c:	014030c4 	movi	r5,195
    1130:	01000f44 	movi	r4,61
    1134:	00009f80 	call	9f8 <cam_write>
cam_write(  0x4b, 0x09 );
    1138:	01400244 	movi	r5,9
    113c:	010012c4 	movi	r4,75
    1140:	00009f80 	call	9f8 <cam_write>
cam_write( 0xc9, 0x60 );
    1144:	01401804 	movi	r5,96
    1148:	01003244 	movi	r4,201
    114c:	00009f80 	call	9f8 <cam_write>
cam_write( REG_COM16, 0x38 );
    1150:	01400e04 	movi	r5,56
    1154:	01001044 	movi	r4,65
    1158:	00009f80 	call	9f8 <cam_write>
cam_write( 0x56, 0x40 );
    115c:	01401004 	movi	r5,64
    1160:	01001584 	movi	r4,86
    1164:	00009f80 	call	9f8 <cam_write>
cam_write( 0x34, 0x11 );
    1168:	01400444 	movi	r5,17
    116c:	01000d04 	movi	r4,52
    1170:	00009f80 	call	9f8 <cam_write>
cam_write(  REG_COM11, COM11_EXP|COM11_HZAUTO );
    1174:	01400484 	movi	r5,18
    1178:	01000ec4 	movi	r4,59
    117c:	00009f80 	call	9f8 <cam_write>
cam_write( 0xa4, 0x88 );
    1180:	01402204 	movi	r5,136
    1184:	01002904 	movi	r4,164
    1188:	00009f80 	call	9f8 <cam_write>
cam_write(  0x96, 0 );
    118c:	000b883a 	mov	r5,zero
    1190:	01002584 	movi	r4,150
    1194:	00009f80 	call	9f8 <cam_write>
cam_write( 0x97, 0x30 );
    1198:	01400c04 	movi	r5,48
    119c:	010025c4 	movi	r4,151
    11a0:	00009f80 	call	9f8 <cam_write>
cam_write(  0x98, 0x20 );
    11a4:	01400804 	movi	r5,32
    11a8:	01002604 	movi	r4,152
    11ac:	00009f80 	call	9f8 <cam_write>
cam_write( 0x99, 0x30 );
    11b0:	01400c04 	movi	r5,48
    11b4:	01002644 	movi	r4,153
    11b8:	00009f80 	call	9f8 <cam_write>
cam_write(  0x9a, 0x84 );
    11bc:	01402104 	movi	r5,132
    11c0:	01002684 	movi	r4,154
    11c4:	00009f80 	call	9f8 <cam_write>
cam_write( 0x9b, 0x29 );
    11c8:	01400a44 	movi	r5,41
    11cc:	010026c4 	movi	r4,155
    11d0:	00009f80 	call	9f8 <cam_write>
cam_write( 0x9c, 0x03 );
    11d4:	014000c4 	movi	r5,3
    11d8:	01002704 	movi	r4,156
    11dc:	00009f80 	call	9f8 <cam_write>
cam_write( 0x9d, 0x4c );
    11e0:	01401304 	movi	r5,76
    11e4:	01002744 	movi	r4,157
    11e8:	00009f80 	call	9f8 <cam_write>
cam_write( 0x9e, 0x3f );
    11ec:	01400fc4 	movi	r5,63
    11f0:	01002784 	movi	r4,158
    11f4:	00009f80 	call	9f8 <cam_write>
cam_write( 0x78, 0x04 );
    11f8:	01400104 	movi	r5,4
    11fc:	01001e04 	movi	r4,120
    1200:	00009f80 	call	9f8 <cam_write>
/* Extra-weird stuff.  Some sort of multiplexor register */
cam_write( 0x79, 0x01 );
    1204:	01400044 	movi	r5,1
    1208:	01001e44 	movi	r4,121
    120c:	00009f80 	call	9f8 <cam_write>
cam_write( 0xc8, 0xf0 );
    1210:	01403c04 	movi	r5,240
    1214:	01003204 	movi	r4,200
    1218:	00009f80 	call	9f8 <cam_write>
cam_write( 0x79, 0x0f );
    121c:	014003c4 	movi	r5,15
    1220:	01001e44 	movi	r4,121
    1224:	00009f80 	call	9f8 <cam_write>
cam_write( 0xc8, 0x00 );
    1228:	000b883a 	mov	r5,zero
    122c:	01003204 	movi	r4,200
    1230:	00009f80 	call	9f8 <cam_write>
cam_write( 0x79, 0x10 );
    1234:	01400404 	movi	r5,16
    1238:	01001e44 	movi	r4,121
    123c:	00009f80 	call	9f8 <cam_write>
cam_write(  0xc8, 0x7e );
    1240:	01401f84 	movi	r5,126
    1244:	01003204 	movi	r4,200
    1248:	00009f80 	call	9f8 <cam_write>
cam_write( 0x79, 0x0a );
    124c:	01400284 	movi	r5,10
    1250:	01001e44 	movi	r4,121
    1254:	00009f80 	call	9f8 <cam_write>
cam_write(  0xc8, 0x80 );
    1258:	01402004 	movi	r5,128
    125c:	01003204 	movi	r4,200
    1260:	00009f80 	call	9f8 <cam_write>
cam_write( 0x79, 0x0b );
    1264:	014002c4 	movi	r5,11
    1268:	01001e44 	movi	r4,121
    126c:	00009f80 	call	9f8 <cam_write>
cam_write( 0xc8, 0x01 );
    1270:	01400044 	movi	r5,1
    1274:	01003204 	movi	r4,200
    1278:	00009f80 	call	9f8 <cam_write>
cam_write( 0x79, 0x0c );
    127c:	01400304 	movi	r5,12
    1280:	01001e44 	movi	r4,121
    1284:	00009f80 	call	9f8 <cam_write>
cam_write(  0xc8, 0x0f );
    1288:	014003c4 	movi	r5,15
    128c:	01003204 	movi	r4,200
    1290:	00009f80 	call	9f8 <cam_write>
cam_write( 0x79, 0x0d );
    1294:	01400344 	movi	r5,13
    1298:	01001e44 	movi	r4,121
    129c:	00009f80 	call	9f8 <cam_write>
cam_write(  0xc8, 0x20 );
    12a0:	01400804 	movi	r5,32
    12a4:	01003204 	movi	r4,200
    12a8:	00009f80 	call	9f8 <cam_write>
cam_write( 0x79, 0x09 );
    12ac:	01400244 	movi	r5,9
    12b0:	01001e44 	movi	r4,121
    12b4:	00009f80 	call	9f8 <cam_write>
cam_write( 0xc8, 0x80 );
    12b8:	01402004 	movi	r5,128
    12bc:	01003204 	movi	r4,200
    12c0:	00009f80 	call	9f8 <cam_write>
cam_write( 0x79, 0x02 );
    12c4:	01400084 	movi	r5,2
    12c8:	01001e44 	movi	r4,121
    12cc:	00009f80 	call	9f8 <cam_write>
cam_write(  0xc8, 0xc0 );
    12d0:	01403004 	movi	r5,192
    12d4:	01003204 	movi	r4,200
    12d8:	00009f80 	call	9f8 <cam_write>
cam_write( 0x79, 0x03 );
    12dc:	014000c4 	movi	r5,3
    12e0:	01001e44 	movi	r4,121
    12e4:	00009f80 	call	9f8 <cam_write>
cam_write(  0xc8, 0x40 );
    12e8:	01401004 	movi	r5,64
    12ec:	01003204 	movi	r4,200
    12f0:	00009f80 	call	9f8 <cam_write>
cam_write( 0x79, 0x05 );
    12f4:	01400144 	movi	r5,5
    12f8:	01001e44 	movi	r4,121
    12fc:	00009f80 	call	9f8 <cam_write>
cam_write( 0xc8, 0x30 );
    1300:	01400c04 	movi	r5,48
    1304:	01003204 	movi	r4,200
    1308:	00009f80 	call	9f8 <cam_write>
cam_write( 0x79, 0x26 );
    130c:	01400984 	movi	r5,38
    1310:	01001e44 	movi	r4,121
    1314:	00009f80 	call	9f8 <cam_write>

}
    1318:	0001883a 	nop
    131c:	e037883a 	mov	sp,fp
    1320:	dfc00117 	ldw	ra,4(sp)
    1324:	df000017 	ldw	fp,0(sp)
    1328:	dec00204 	addi	sp,sp,8
    132c:	f800283a 	ret

00001330 <cam_init>:


int cam_init()
{
    1330:	defffe04 	addi	sp,sp,-8
    1334:	dfc00115 	stw	ra,4(sp)
    1338:	df000015 	stw	fp,0(sp)
    133c:	d839883a 	mov	fp,sp
  //int i;
  //ALT_AVALON_I2C_STATUS_CODE status;

  //get a pointer to the avalon i2c instance
  i2c_dev = alt_avalon_i2c_open("/dev/camera_i2c");
    1340:	010000b4 	movhi	r4,2
    1344:	21331c04 	addi	r4,r4,-13200
    1348:	00190200 	call	19020 <alt_avalon_i2c_open>
    134c:	d0a71515 	stw	r2,-25516(gp)
  if (NULL==i2c_dev)
    1350:	d0a71517 	ldw	r2,-25516(gp)
    1354:	1000051e 	bne	r2,zero,136c <cam_init+0x3c>
  {
      printf("Error: Cannot find /dev/camera_i2c\n");
    1358:	010000b4 	movhi	r4,2
    135c:	21332004 	addi	r4,r4,-13184
    1360:	0001ce00 	call	1ce0 <puts>
      return 1;
    1364:	00800044 	movi	r2,1
    1368:	00000506 	br	1380 <cam_init+0x50>
  }

  //set the address of the device using

  alt_avalon_i2c_master_target_set(i2c_dev,0x21);
    136c:	d0a71517 	ldw	r2,-25516(gp)
    1370:	01400844 	movi	r5,33
    1374:	1009883a 	mov	r4,r2
    1378:	00197f00 	call	197f0 <alt_avalon_i2c_master_target_set>

  //cam_write(REG_COM7,0x80);	// reset

  // should be a delay here to wait for reset to complete

  return 0;
    137c:	0005883a 	mov	r2,zero
}
    1380:	e037883a 	mov	sp,fp
    1384:	dfc00117 	ldw	ra,4(sp)
    1388:	df000017 	ldw	fp,0(sp)
    138c:	dec00204 	addi	sp,sp,8
    1390:	f800283a 	ret

00001394 <cam_dump>:

int cam_dump()
{
    1394:	defffc04 	addi	sp,sp,-16
    1398:	dfc00315 	stw	ra,12(sp)
    139c:	df000215 	stw	fp,8(sp)
    13a0:	df000204 	addi	fp,sp,8
	uint8_t data;

	for(int i=1;i<50;i++)
    13a4:	00800044 	movi	r2,1
    13a8:	e0bffe15 	stw	r2,-8(fp)
    13ac:	00001806 	br	1410 <cam_dump+0x7c>
	{
		if (!cam_read(i,&data))
    13b0:	e0bffe17 	ldw	r2,-8(fp)
    13b4:	10803fcc 	andi	r2,r2,255
    13b8:	e0ffff04 	addi	r3,fp,-4
    13bc:	180b883a 	mov	r5,r3
    13c0:	1009883a 	mov	r4,r2
    13c4:	0000a700 	call	a70 <cam_read>
    13c8:	1000081e 	bne	r2,zero,13ec <cam_dump+0x58>
		{
			printf("Reg: %d, Value: %d\n",i,data);
    13cc:	e0bfff03 	ldbu	r2,-4(fp)
    13d0:	10803fcc 	andi	r2,r2,255
    13d4:	100d883a 	mov	r6,r2
    13d8:	e17ffe17 	ldw	r5,-8(fp)
    13dc:	010000b4 	movhi	r4,2
    13e0:	21332904 	addi	r4,r4,-13148
    13e4:	0001bc40 	call	1bc4 <printf>
    13e8:	00000406 	br	13fc <cam_dump+0x68>
		}
		else
		{
			printf("read failed: %d\n",i);
    13ec:	e17ffe17 	ldw	r5,-8(fp)
    13f0:	010000b4 	movhi	r4,2
    13f4:	21332e04 	addi	r4,r4,-13128
    13f8:	0001bc40 	call	1bc4 <printf>
		}

		alt_busy_sleep(100);
    13fc:	01001904 	movi	r4,100
    1400:	0017d340 	call	17d34 <alt_busy_sleep>

int cam_dump()
{
	uint8_t data;

	for(int i=1;i<50;i++)
    1404:	e0bffe17 	ldw	r2,-8(fp)
    1408:	10800044 	addi	r2,r2,1
    140c:	e0bffe15 	stw	r2,-8(fp)
    1410:	e0bffe17 	ldw	r2,-8(fp)
    1414:	10800c90 	cmplti	r2,r2,50
    1418:	103fe51e 	bne	r2,zero,13b0 <__alt_mem_Onchip_SRAM+0xf80013b0>
			printf("read failed: %d\n",i);
		}

		alt_busy_sleep(100);
	}
	return 0;
    141c:	0005883a 	mov	r2,zero
}
    1420:	e037883a 	mov	sp,fp
    1424:	dfc00117 	ldw	ra,4(sp)
    1428:	df000017 	ldw	fp,0(sp)
    142c:	dec00204 	addi	sp,sp,8
    1430:	f800283a 	ret

00001434 <delay_usec>:

// delay routine using timer
void delay_usec(int delay)
{
    1434:	defffe04 	addi	sp,sp,-8
    1438:	df000115 	stw	fp,4(sp)
    143c:	df000104 	addi	fp,sp,4
    1440:	e13fff15 	stw	r4,-4(fp)
	//volatile uint16_t* timer0 = INTERVAL_TIMER_BASE;

	//

}
    1444:	0001883a 	nop
    1448:	e037883a 	mov	sp,fp
    144c:	df000017 	ldw	fp,0(sp)
    1450:	dec00104 	addi	sp,sp,4
    1454:	f800283a 	ret

00001458 <copy_that>:

void copy_that()
{
    1458:	defff804 	addi	sp,sp,-32
    145c:	dfc00715 	stw	ra,28(sp)
    1460:	df000615 	stw	fp,24(sp)
    1464:	dc400515 	stw	r17,20(sp)
    1468:	dc000415 	stw	r16,16(sp)
    146c:	df000604 	addi	fp,sp,24
	uint16_t * vga_ram = 0x08000000;
    1470:	00820034 	movhi	r2,2048
    1474:	e0bffc15 	stw	r2,-16(fp)
	uint16_t * cam_ram = 0x02000000;
    1478:	00808034 	movhi	r2,512
    147c:	e0bffd15 	stw	r2,-12(fp)

	for (int i = 0; i<160; i++)
    1480:	e03ffa15 	stw	zero,-24(fp)
    1484:	00002006 	br	1508 <copy_that+0xb0>
	{
		for (int j=0;j<120;j++)
    1488:	e03ffb15 	stw	zero,-20(fp)
    148c:	00001806 	br	14f0 <copy_that+0x98>
		{
			*(vga_ram+i+j*160) = *(cam_ram+(i*4)+(j*4*160));
    1490:	01402804 	movi	r5,160
    1494:	e13ffb17 	ldw	r4,-20(fp)
    1498:	00019740 	call	1974 <__mulsi3>
    149c:	1007883a 	mov	r3,r2
    14a0:	e0bffa17 	ldw	r2,-24(fp)
    14a4:	1885883a 	add	r2,r3,r2
    14a8:	1085883a 	add	r2,r2,r2
    14ac:	1007883a 	mov	r3,r2
    14b0:	e0bffc17 	ldw	r2,-16(fp)
    14b4:	10e1883a 	add	r16,r2,r3
    14b8:	e0bffa17 	ldw	r2,-24(fp)
    14bc:	100490fa 	slli	r2,r2,3
    14c0:	1023883a 	mov	r17,r2
    14c4:	01414004 	movi	r5,1280
    14c8:	e13ffb17 	ldw	r4,-20(fp)
    14cc:	00019740 	call	1974 <__mulsi3>
    14d0:	8885883a 	add	r2,r17,r2
    14d4:	e0fffd17 	ldw	r3,-12(fp)
    14d8:	1885883a 	add	r2,r3,r2
    14dc:	1080000b 	ldhu	r2,0(r2)
    14e0:	8080000d 	sth	r2,0(r16)
	uint16_t * vga_ram = 0x08000000;
	uint16_t * cam_ram = 0x02000000;

	for (int i = 0; i<160; i++)
	{
		for (int j=0;j<120;j++)
    14e4:	e0bffb17 	ldw	r2,-20(fp)
    14e8:	10800044 	addi	r2,r2,1
    14ec:	e0bffb15 	stw	r2,-20(fp)
    14f0:	e0bffb17 	ldw	r2,-20(fp)
    14f4:	10801e10 	cmplti	r2,r2,120
    14f8:	103fe51e 	bne	r2,zero,1490 <__alt_mem_Onchip_SRAM+0xf8001490>
void copy_that()
{
	uint16_t * vga_ram = 0x08000000;
	uint16_t * cam_ram = 0x02000000;

	for (int i = 0; i<160; i++)
    14fc:	e0bffa17 	ldw	r2,-24(fp)
    1500:	10800044 	addi	r2,r2,1
    1504:	e0bffa15 	stw	r2,-24(fp)
    1508:	e0bffa17 	ldw	r2,-24(fp)
    150c:	10802810 	cmplti	r2,r2,160
    1510:	103fdd1e 	bne	r2,zero,1488 <__alt_mem_Onchip_SRAM+0xf8001488>
			*(vga_ram+i+j*160) = *(cam_ram+(i*4)+(j*4*160));
		}
	}


}
    1514:	0001883a 	nop
    1518:	e6fffe04 	addi	sp,fp,-8
    151c:	dfc00317 	ldw	ra,12(sp)
    1520:	df000217 	ldw	fp,8(sp)
    1524:	dc400117 	ldw	r17,4(sp)
    1528:	dc000017 	ldw	r16,0(sp)
    152c:	dec00404 	addi	sp,sp,16
    1530:	f800283a 	ret

00001534 <main>:
#define PCLK 0x100
#define HREF 0x200
#define VSYNCH 0x400

int main()
{
    1534:	defffa04 	addi	sp,sp,-24
    1538:	dfc00515 	stw	ra,20(sp)
    153c:	df000415 	stw	fp,16(sp)
    1540:	df000404 	addi	fp,sp,16
  printf("Hello from Nios II!\n");
    1544:	010000b4 	movhi	r4,2
    1548:	21333304 	addi	r4,r4,-13108
    154c:	0001ce00 	call	1ce0 <puts>

//  clear_screen(0xF00F);
// clear_screen(0x00FF);

  // reset Camera
  printf("Reset Camera\n");
    1550:	010000b4 	movhi	r4,2
    1554:	21333804 	addi	r4,r4,-13088
    1558:	0001ce00 	call	1ce0 <puts>
  IOWR_ALTERA_AVALON_PIO_DATA(ARDUINO_RESET_N_BASE, 0X00);
    155c:	0007883a 	mov	r3,zero
    1560:	00bfc834 	movhi	r2,65312
    1564:	10804404 	addi	r2,r2,272
    1568:	10c00035 	stwio	r3,0(r2)
  usleep(1000000);
    156c:	010003f4 	movhi	r4,15
    1570:	21109004 	addi	r4,r4,16960
    1574:	0018a7c0 	call	18a7c <usleep>
  IOWR_ALTERA_AVALON_PIO_DATA(ARDUINO_RESET_N_BASE, 0X01);
    1578:	00c00044 	movi	r3,1
    157c:	00bfc834 	movhi	r2,65312
    1580:	10804404 	addi	r2,r2,272
    1584:	10c00035 	stwio	r3,0(r2)
  usleep(100000);
    1588:	010000b4 	movhi	r4,2
    158c:	2121a804 	addi	r4,r4,-31072
    1590:	0018a7c0 	call	18a7c <usleep>
  printf("Init I2C\n");
    1594:	010000b4 	movhi	r4,2
    1598:	21333c04 	addi	r4,r4,-13072
    159c:	0001ce00 	call	1ce0 <puts>
  cam_init();
    15a0:	00013300 	call	1330 <cam_init>
  printf("Dump\n");
    15a4:	010000b4 	movhi	r4,2
    15a8:	21333f04 	addi	r4,r4,-13060
    15ac:	0001ce00 	call	1ce0 <puts>
  cam_dump();
    15b0:	00013940 	call	1394 <cam_dump>
//  cam_write_2();
  printf("Write 1\n");
    15b4:	010000b4 	movhi	r4,2
    15b8:	21334104 	addi	r4,r4,-13052
    15bc:	0001ce00 	call	1ce0 <puts>

//  cam_write_1();

  char burn;
  char cmd = 'n';
    15c0:	00801b84 	movi	r2,110
    15c4:	e0bffd45 	stb	r2,-11(fp)
  int reg = 0;
    15c8:	e03ffe15 	stw	zero,-8(fp)
  int val = 0;
    15cc:	e03fff15 	stw	zero,-4(fp)

  int retval;

  while(1)
  {
    printf(">");
    15d0:	01000f84 	movi	r4,62
    15d4:	0001c080 	call	1c08 <putchar>
	scanf("%c", &cmd);
    15d8:	e0bffd44 	addi	r2,fp,-11
    15dc:	100b883a 	mov	r5,r2
    15e0:	010000b4 	movhi	r4,2
    15e4:	21334304 	addi	r4,r4,-13044
    15e8:	0001d700 	call	1d70 <scanf>

	if(cmd == 'w' || cmd == 'r')
    15ec:	e0bffd43 	ldbu	r2,-11(fp)
    15f0:	10803fcc 	andi	r2,r2,255
    15f4:	1080201c 	xori	r2,r2,128
    15f8:	10bfe004 	addi	r2,r2,-128
    15fc:	10801de0 	cmpeqi	r2,r2,119
    1600:	1000061e 	bne	r2,zero,161c <main+0xe8>
    1604:	e0bffd43 	ldbu	r2,-11(fp)
    1608:	10803fcc 	andi	r2,r2,255
    160c:	1080201c 	xori	r2,r2,128
    1610:	10bfe004 	addi	r2,r2,-128
    1614:	10801c98 	cmpnei	r2,r2,114
    1618:	1000051e 	bne	r2,zero,1630 <main+0xfc>
	{
		scanf("%x", &reg);
    161c:	e0bffe04 	addi	r2,fp,-8
    1620:	100b883a 	mov	r5,r2
    1624:	010000b4 	movhi	r4,2
    1628:	21334404 	addi	r4,r4,-13040
    162c:	0001d700 	call	1d70 <scanf>
	}
	if (cmd == 'w')
    1630:	e0bffd43 	ldbu	r2,-11(fp)
    1634:	10803fcc 	andi	r2,r2,255
    1638:	1080201c 	xori	r2,r2,128
    163c:	10bfe004 	addi	r2,r2,-128
    1640:	10801dd8 	cmpnei	r2,r2,119
    1644:	1000051e 	bne	r2,zero,165c <main+0x128>
	{
		scanf("%x", &val);
    1648:	e0bfff04 	addi	r2,fp,-4
    164c:	100b883a 	mov	r5,r2
    1650:	010000b4 	movhi	r4,2
    1654:	21334404 	addi	r4,r4,-13040
    1658:	0001d700 	call	1d70 <scanf>
	}
	scanf("%c", &burn);
    165c:	e0bffd04 	addi	r2,fp,-12
    1660:	100b883a 	mov	r5,r2
    1664:	010000b4 	movhi	r4,2
    1668:	21334304 	addi	r4,r4,-13044
    166c:	0001d700 	call	1d70 <scanf>

	printf("Command: %c\n",cmd);
    1670:	e0bffd43 	ldbu	r2,-11(fp)
    1674:	10803fcc 	andi	r2,r2,255
    1678:	1080201c 	xori	r2,r2,128
    167c:	10bfe004 	addi	r2,r2,-128
    1680:	100b883a 	mov	r5,r2
    1684:	010000b4 	movhi	r4,2
    1688:	21334504 	addi	r4,r4,-13036
    168c:	0001bc40 	call	1bc4 <printf>

	if(cmd == 'w')
    1690:	e0bffd43 	ldbu	r2,-11(fp)
    1694:	10803fcc 	andi	r2,r2,255
    1698:	1080201c 	xori	r2,r2,128
    169c:	10bfe004 	addi	r2,r2,-128
    16a0:	10801dd8 	cmpnei	r2,r2,119
    16a4:	1000231e 	bne	r2,zero,1734 <main+0x200>
	{
		retval = cam_write(reg, val);
    16a8:	e0bffe17 	ldw	r2,-8(fp)
    16ac:	10c03fcc 	andi	r3,r2,255
    16b0:	e0bfff17 	ldw	r2,-4(fp)
    16b4:	10803fcc 	andi	r2,r2,255
    16b8:	100b883a 	mov	r5,r2
    16bc:	1809883a 	mov	r4,r3
    16c0:	00009f80 	call	9f8 <cam_write>
    16c4:	e0bffc15 	stw	r2,-16(fp)
		if (retval)
    16c8:	e0bffc17 	ldw	r2,-16(fp)
    16cc:	10000426 	beq	r2,zero,16e0 <main+0x1ac>
		{
			printf("Cam Write failed: %d\n", retval);
    16d0:	e17ffc17 	ldw	r5,-16(fp)
    16d4:	010000b4 	movhi	r4,2
    16d8:	21334904 	addi	r4,r4,-13020
    16dc:	0001bc40 	call	1bc4 <printf>
		}
		retval = cam_read(reg,&val);
    16e0:	e0bffe17 	ldw	r2,-8(fp)
    16e4:	10803fcc 	andi	r2,r2,255
    16e8:	e0ffff04 	addi	r3,fp,-4
    16ec:	180b883a 	mov	r5,r3
    16f0:	1009883a 	mov	r4,r2
    16f4:	0000a700 	call	a70 <cam_read>
    16f8:	e0bffc15 	stw	r2,-16(fp)
		if (retval)
    16fc:	e0bffc17 	ldw	r2,-16(fp)
    1700:	10000426 	beq	r2,zero,1714 <main+0x1e0>
		{
			printf("Cam Readback failed: %d\n", retval);
    1704:	e17ffc17 	ldw	r5,-16(fp)
    1708:	010000b4 	movhi	r4,2
    170c:	21334f04 	addi	r4,r4,-12996
    1710:	0001bc40 	call	1bc4 <printf>
		}
		printf("Register %#X is now: %#X\n",reg,val);
    1714:	e0bffe17 	ldw	r2,-8(fp)
    1718:	e0ffff17 	ldw	r3,-4(fp)
    171c:	180d883a 	mov	r6,r3
    1720:	100b883a 	mov	r5,r2
    1724:	010000b4 	movhi	r4,2
    1728:	21335604 	addi	r4,r4,-12968
    172c:	0001bc40 	call	1bc4 <printf>
    1730:	003fa706 	br	15d0 <__alt_mem_Onchip_SRAM+0xf80015d0>
	}
	else if(cmd == 'r')
    1734:	e0bffd43 	ldbu	r2,-11(fp)
    1738:	10803fcc 	andi	r2,r2,255
    173c:	1080201c 	xori	r2,r2,128
    1740:	10bfe004 	addi	r2,r2,-128
    1744:	10801c98 	cmpnei	r2,r2,114
    1748:	1000151e 	bne	r2,zero,17a0 <main+0x26c>
	{
		retval = cam_read(reg,&val);
    174c:	e0bffe17 	ldw	r2,-8(fp)
    1750:	10803fcc 	andi	r2,r2,255
    1754:	e0ffff04 	addi	r3,fp,-4
    1758:	180b883a 	mov	r5,r3
    175c:	1009883a 	mov	r4,r2
    1760:	0000a700 	call	a70 <cam_read>
    1764:	e0bffc15 	stw	r2,-16(fp)
		if (retval)
    1768:	e0bffc17 	ldw	r2,-16(fp)
    176c:	10000426 	beq	r2,zero,1780 <main+0x24c>
		{
			printf("Cam Read failed: %d\n", retval);
    1770:	e17ffc17 	ldw	r5,-16(fp)
    1774:	010000b4 	movhi	r4,2
    1778:	21335d04 	addi	r4,r4,-12940
    177c:	0001bc40 	call	1bc4 <printf>
		}
		printf("Register %#X is: %#X\n",reg,val);
    1780:	e0bffe17 	ldw	r2,-8(fp)
    1784:	e0ffff17 	ldw	r3,-4(fp)
    1788:	180d883a 	mov	r6,r3
    178c:	100b883a 	mov	r5,r2
    1790:	010000b4 	movhi	r4,2
    1794:	21336304 	addi	r4,r4,-12916
    1798:	0001bc40 	call	1bc4 <printf>
    179c:	003f8c06 	br	15d0 <__alt_mem_Onchip_SRAM+0xf80015d0>
	}
	else if (cmd == 'c')
    17a0:	e0bffd43 	ldbu	r2,-11(fp)
    17a4:	10803fcc 	andi	r2,r2,255
    17a8:	1080201c 	xori	r2,r2,128
    17ac:	10bfe004 	addi	r2,r2,-128
    17b0:	108018d8 	cmpnei	r2,r2,99
    17b4:	103f861e 	bne	r2,zero,15d0 <__alt_mem_Onchip_SRAM+0xf80015d0>
	{
		copy_that();
    17b8:	00014580 	call	1458 <copy_that>
	}

  }
    17bc:	003f8406 	br	15d0 <__alt_mem_Onchip_SRAM+0xf80015d0>

000017c0 <__divsi3>:
    17c0:	20001b16 	blt	r4,zero,1830 <__divsi3+0x70>
    17c4:	000f883a 	mov	r7,zero
    17c8:	28001616 	blt	r5,zero,1824 <__divsi3+0x64>
    17cc:	200d883a 	mov	r6,r4
    17d0:	29001a2e 	bgeu	r5,r4,183c <__divsi3+0x7c>
    17d4:	00800804 	movi	r2,32
    17d8:	00c00044 	movi	r3,1
    17dc:	00000106 	br	17e4 <__divsi3+0x24>
    17e0:	10000d26 	beq	r2,zero,1818 <__divsi3+0x58>
    17e4:	294b883a 	add	r5,r5,r5
    17e8:	10bfffc4 	addi	r2,r2,-1
    17ec:	18c7883a 	add	r3,r3,r3
    17f0:	293ffb36 	bltu	r5,r4,17e0 <__alt_mem_Onchip_SRAM+0xf80017e0>
    17f4:	0005883a 	mov	r2,zero
    17f8:	18000726 	beq	r3,zero,1818 <__divsi3+0x58>
    17fc:	0005883a 	mov	r2,zero
    1800:	31400236 	bltu	r6,r5,180c <__divsi3+0x4c>
    1804:	314dc83a 	sub	r6,r6,r5
    1808:	10c4b03a 	or	r2,r2,r3
    180c:	1806d07a 	srli	r3,r3,1
    1810:	280ad07a 	srli	r5,r5,1
    1814:	183ffa1e 	bne	r3,zero,1800 <__alt_mem_Onchip_SRAM+0xf8001800>
    1818:	38000126 	beq	r7,zero,1820 <__divsi3+0x60>
    181c:	0085c83a 	sub	r2,zero,r2
    1820:	f800283a 	ret
    1824:	014bc83a 	sub	r5,zero,r5
    1828:	39c0005c 	xori	r7,r7,1
    182c:	003fe706 	br	17cc <__alt_mem_Onchip_SRAM+0xf80017cc>
    1830:	0109c83a 	sub	r4,zero,r4
    1834:	01c00044 	movi	r7,1
    1838:	003fe306 	br	17c8 <__alt_mem_Onchip_SRAM+0xf80017c8>
    183c:	00c00044 	movi	r3,1
    1840:	003fee06 	br	17fc <__alt_mem_Onchip_SRAM+0xf80017fc>

00001844 <__modsi3>:
    1844:	20001716 	blt	r4,zero,18a4 <__modsi3+0x60>
    1848:	000f883a 	mov	r7,zero
    184c:	2005883a 	mov	r2,r4
    1850:	28001216 	blt	r5,zero,189c <__modsi3+0x58>
    1854:	2900162e 	bgeu	r5,r4,18b0 <__modsi3+0x6c>
    1858:	01800804 	movi	r6,32
    185c:	00c00044 	movi	r3,1
    1860:	00000106 	br	1868 <__modsi3+0x24>
    1864:	30000a26 	beq	r6,zero,1890 <__modsi3+0x4c>
    1868:	294b883a 	add	r5,r5,r5
    186c:	31bfffc4 	addi	r6,r6,-1
    1870:	18c7883a 	add	r3,r3,r3
    1874:	293ffb36 	bltu	r5,r4,1864 <__alt_mem_Onchip_SRAM+0xf8001864>
    1878:	18000526 	beq	r3,zero,1890 <__modsi3+0x4c>
    187c:	1806d07a 	srli	r3,r3,1
    1880:	11400136 	bltu	r2,r5,1888 <__modsi3+0x44>
    1884:	1145c83a 	sub	r2,r2,r5
    1888:	280ad07a 	srli	r5,r5,1
    188c:	183ffb1e 	bne	r3,zero,187c <__alt_mem_Onchip_SRAM+0xf800187c>
    1890:	38000126 	beq	r7,zero,1898 <__modsi3+0x54>
    1894:	0085c83a 	sub	r2,zero,r2
    1898:	f800283a 	ret
    189c:	014bc83a 	sub	r5,zero,r5
    18a0:	003fec06 	br	1854 <__alt_mem_Onchip_SRAM+0xf8001854>
    18a4:	0109c83a 	sub	r4,zero,r4
    18a8:	01c00044 	movi	r7,1
    18ac:	003fe706 	br	184c <__alt_mem_Onchip_SRAM+0xf800184c>
    18b0:	00c00044 	movi	r3,1
    18b4:	003ff106 	br	187c <__alt_mem_Onchip_SRAM+0xf800187c>

000018b8 <__udivsi3>:
    18b8:	200d883a 	mov	r6,r4
    18bc:	2900152e 	bgeu	r5,r4,1914 <__udivsi3+0x5c>
    18c0:	28001416 	blt	r5,zero,1914 <__udivsi3+0x5c>
    18c4:	00800804 	movi	r2,32
    18c8:	00c00044 	movi	r3,1
    18cc:	00000206 	br	18d8 <__udivsi3+0x20>
    18d0:	10000e26 	beq	r2,zero,190c <__udivsi3+0x54>
    18d4:	28000516 	blt	r5,zero,18ec <__udivsi3+0x34>
    18d8:	294b883a 	add	r5,r5,r5
    18dc:	10bfffc4 	addi	r2,r2,-1
    18e0:	18c7883a 	add	r3,r3,r3
    18e4:	293ffa36 	bltu	r5,r4,18d0 <__alt_mem_Onchip_SRAM+0xf80018d0>
    18e8:	18000826 	beq	r3,zero,190c <__udivsi3+0x54>
    18ec:	0005883a 	mov	r2,zero
    18f0:	31400236 	bltu	r6,r5,18fc <__udivsi3+0x44>
    18f4:	314dc83a 	sub	r6,r6,r5
    18f8:	10c4b03a 	or	r2,r2,r3
    18fc:	1806d07a 	srli	r3,r3,1
    1900:	280ad07a 	srli	r5,r5,1
    1904:	183ffa1e 	bne	r3,zero,18f0 <__alt_mem_Onchip_SRAM+0xf80018f0>
    1908:	f800283a 	ret
    190c:	0005883a 	mov	r2,zero
    1910:	f800283a 	ret
    1914:	00c00044 	movi	r3,1
    1918:	003ff406 	br	18ec <__alt_mem_Onchip_SRAM+0xf80018ec>

0000191c <__umodsi3>:
    191c:	2005883a 	mov	r2,r4
    1920:	2900122e 	bgeu	r5,r4,196c <__umodsi3+0x50>
    1924:	28001116 	blt	r5,zero,196c <__umodsi3+0x50>
    1928:	01800804 	movi	r6,32
    192c:	00c00044 	movi	r3,1
    1930:	00000206 	br	193c <__umodsi3+0x20>
    1934:	30000c26 	beq	r6,zero,1968 <__umodsi3+0x4c>
    1938:	28000516 	blt	r5,zero,1950 <__umodsi3+0x34>
    193c:	294b883a 	add	r5,r5,r5
    1940:	31bfffc4 	addi	r6,r6,-1
    1944:	18c7883a 	add	r3,r3,r3
    1948:	293ffa36 	bltu	r5,r4,1934 <__alt_mem_Onchip_SRAM+0xf8001934>
    194c:	18000626 	beq	r3,zero,1968 <__umodsi3+0x4c>
    1950:	1806d07a 	srli	r3,r3,1
    1954:	11400136 	bltu	r2,r5,195c <__umodsi3+0x40>
    1958:	1145c83a 	sub	r2,r2,r5
    195c:	280ad07a 	srli	r5,r5,1
    1960:	183ffb1e 	bne	r3,zero,1950 <__alt_mem_Onchip_SRAM+0xf8001950>
    1964:	f800283a 	ret
    1968:	f800283a 	ret
    196c:	00c00044 	movi	r3,1
    1970:	003ff706 	br	1950 <__alt_mem_Onchip_SRAM+0xf8001950>

00001974 <__mulsi3>:
    1974:	0005883a 	mov	r2,zero
    1978:	20000726 	beq	r4,zero,1998 <__mulsi3+0x24>
    197c:	20c0004c 	andi	r3,r4,1
    1980:	2008d07a 	srli	r4,r4,1
    1984:	18000126 	beq	r3,zero,198c <__mulsi3+0x18>
    1988:	1145883a 	add	r2,r2,r5
    198c:	294b883a 	add	r5,r5,r5
    1990:	203ffa1e 	bne	r4,zero,197c <__alt_mem_Onchip_SRAM+0xf800197c>
    1994:	f800283a 	ret
    1998:	f800283a 	ret

0000199c <__fixsfsi>:
    199c:	200ad5fa 	srli	r5,r4,23
    19a0:	00c02034 	movhi	r3,128
    19a4:	18ffffc4 	addi	r3,r3,-1
    19a8:	29403fcc 	andi	r5,r5,255
    19ac:	00801f84 	movi	r2,126
    19b0:	1906703a 	and	r3,r3,r4
    19b4:	2008d7fa 	srli	r4,r4,31
    19b8:	11400e0e 	bge	r2,r5,19f4 <__fixsfsi+0x58>
    19bc:	00802744 	movi	r2,157
    19c0:	11400816 	blt	r2,r5,19e4 <__fixsfsi+0x48>
    19c4:	00802544 	movi	r2,149
    19c8:	18c02034 	orhi	r3,r3,128
    19cc:	11400b0e 	bge	r2,r5,19fc <__fixsfsi+0x60>
    19d0:	28bfda84 	addi	r2,r5,-150
    19d4:	1884983a 	sll	r2,r3,r2
    19d8:	20000726 	beq	r4,zero,19f8 <__fixsfsi+0x5c>
    19dc:	0085c83a 	sub	r2,zero,r2
    19e0:	f800283a 	ret
    19e4:	00a00034 	movhi	r2,32768
    19e8:	10bfffc4 	addi	r2,r2,-1
    19ec:	2085883a 	add	r2,r4,r2
    19f0:	f800283a 	ret
    19f4:	0005883a 	mov	r2,zero
    19f8:	f800283a 	ret
    19fc:	00802584 	movi	r2,150
    1a00:	1145c83a 	sub	r2,r2,r5
    1a04:	1884d83a 	srl	r2,r3,r2
    1a08:	003ff306 	br	19d8 <__alt_mem_Onchip_SRAM+0xf80019d8>

00001a0c <__floatsisf>:
    1a0c:	defffd04 	addi	sp,sp,-12
    1a10:	dfc00215 	stw	ra,8(sp)
    1a14:	dc400115 	stw	r17,4(sp)
    1a18:	dc000015 	stw	r16,0(sp)
    1a1c:	20003526 	beq	r4,zero,1af4 <__floatsisf+0xe8>
    1a20:	2021883a 	mov	r16,r4
    1a24:	2022d7fa 	srli	r17,r4,31
    1a28:	20003616 	blt	r4,zero,1b04 <__floatsisf+0xf8>
    1a2c:	8009883a 	mov	r4,r16
    1a30:	0001b300 	call	1b30 <__clzsi2>
    1a34:	00c02784 	movi	r3,158
    1a38:	1887c83a 	sub	r3,r3,r2
    1a3c:	01002584 	movi	r4,150
    1a40:	20c01416 	blt	r4,r3,1a94 <__floatsisf+0x88>
    1a44:	20c9c83a 	sub	r4,r4,r3
    1a48:	8120983a 	sll	r16,r16,r4
    1a4c:	00802034 	movhi	r2,128
    1a50:	10bfffc4 	addi	r2,r2,-1
    1a54:	8809883a 	mov	r4,r17
    1a58:	80a0703a 	and	r16,r16,r2
    1a5c:	18803fcc 	andi	r2,r3,255
    1a60:	100695fa 	slli	r3,r2,23
    1a64:	20803fcc 	andi	r2,r4,255
    1a68:	100897fa 	slli	r4,r2,31
    1a6c:	00802034 	movhi	r2,128
    1a70:	10bfffc4 	addi	r2,r2,-1
    1a74:	8084703a 	and	r2,r16,r2
    1a78:	10c4b03a 	or	r2,r2,r3
    1a7c:	1104b03a 	or	r2,r2,r4
    1a80:	dfc00217 	ldw	ra,8(sp)
    1a84:	dc400117 	ldw	r17,4(sp)
    1a88:	dc000017 	ldw	r16,0(sp)
    1a8c:	dec00304 	addi	sp,sp,12
    1a90:	f800283a 	ret
    1a94:	01002644 	movi	r4,153
    1a98:	20c01c16 	blt	r4,r3,1b0c <__floatsisf+0x100>
    1a9c:	20c9c83a 	sub	r4,r4,r3
    1aa0:	8120983a 	sll	r16,r16,r4
    1aa4:	013f0034 	movhi	r4,64512
    1aa8:	213fffc4 	addi	r4,r4,-1
    1aac:	814001cc 	andi	r5,r16,7
    1ab0:	8108703a 	and	r4,r16,r4
    1ab4:	28000426 	beq	r5,zero,1ac8 <__floatsisf+0xbc>
    1ab8:	840003cc 	andi	r16,r16,15
    1abc:	01400104 	movi	r5,4
    1ac0:	81400126 	beq	r16,r5,1ac8 <__floatsisf+0xbc>
    1ac4:	2149883a 	add	r4,r4,r5
    1ac8:	2141002c 	andhi	r5,r4,1024
    1acc:	28000526 	beq	r5,zero,1ae4 <__floatsisf+0xd8>
    1ad0:	00c027c4 	movi	r3,159
    1ad4:	1887c83a 	sub	r3,r3,r2
    1ad8:	00bf0034 	movhi	r2,64512
    1adc:	10bfffc4 	addi	r2,r2,-1
    1ae0:	2088703a 	and	r4,r4,r2
    1ae4:	202091ba 	slli	r16,r4,6
    1ae8:	8809883a 	mov	r4,r17
    1aec:	8020d27a 	srli	r16,r16,9
    1af0:	003fda06 	br	1a5c <__alt_mem_Onchip_SRAM+0xf8001a5c>
    1af4:	0009883a 	mov	r4,zero
    1af8:	0007883a 	mov	r3,zero
    1afc:	0021883a 	mov	r16,zero
    1b00:	003fd606 	br	1a5c <__alt_mem_Onchip_SRAM+0xf8001a5c>
    1b04:	0121c83a 	sub	r16,zero,r4
    1b08:	003fc806 	br	1a2c <__alt_mem_Onchip_SRAM+0xf8001a2c>
    1b0c:	01002e44 	movi	r4,185
    1b10:	20c9c83a 	sub	r4,r4,r3
    1b14:	01400144 	movi	r5,5
    1b18:	8108983a 	sll	r4,r16,r4
    1b1c:	288bc83a 	sub	r5,r5,r2
    1b20:	8160d83a 	srl	r16,r16,r5
    1b24:	2008c03a 	cmpne	r4,r4,zero
    1b28:	8120b03a 	or	r16,r16,r4
    1b2c:	003fdd06 	br	1aa4 <__alt_mem_Onchip_SRAM+0xf8001aa4>

00001b30 <__clzsi2>:
    1b30:	00bfffd4 	movui	r2,65535
    1b34:	11000536 	bltu	r2,r4,1b4c <__clzsi2+0x1c>
    1b38:	00803fc4 	movi	r2,255
    1b3c:	11000f36 	bltu	r2,r4,1b7c <__clzsi2+0x4c>
    1b40:	00800804 	movi	r2,32
    1b44:	0007883a 	mov	r3,zero
    1b48:	00000506 	br	1b60 <__clzsi2+0x30>
    1b4c:	00804034 	movhi	r2,256
    1b50:	10bfffc4 	addi	r2,r2,-1
    1b54:	11000c2e 	bgeu	r2,r4,1b88 <__clzsi2+0x58>
    1b58:	00800204 	movi	r2,8
    1b5c:	00c00604 	movi	r3,24
    1b60:	20c8d83a 	srl	r4,r4,r3
    1b64:	00c000b4 	movhi	r3,2
    1b68:	18f36884 	addi	r3,r3,-12894
    1b6c:	1909883a 	add	r4,r3,r4
    1b70:	20c00003 	ldbu	r3,0(r4)
    1b74:	10c5c83a 	sub	r2,r2,r3
    1b78:	f800283a 	ret
    1b7c:	00800604 	movi	r2,24
    1b80:	00c00204 	movi	r3,8
    1b84:	003ff606 	br	1b60 <__alt_mem_Onchip_SRAM+0xf8001b60>
    1b88:	00800404 	movi	r2,16
    1b8c:	1007883a 	mov	r3,r2
    1b90:	003ff306 	br	1b60 <__alt_mem_Onchip_SRAM+0xf8001b60>

00001b94 <_printf_r>:
    1b94:	defffd04 	addi	sp,sp,-12
    1b98:	2805883a 	mov	r2,r5
    1b9c:	dfc00015 	stw	ra,0(sp)
    1ba0:	d9800115 	stw	r6,4(sp)
    1ba4:	d9c00215 	stw	r7,8(sp)
    1ba8:	21400217 	ldw	r5,8(r4)
    1bac:	d9c00104 	addi	r7,sp,4
    1bb0:	100d883a 	mov	r6,r2
    1bb4:	00042440 	call	4244 <___vfprintf_internal_r>
    1bb8:	dfc00017 	ldw	ra,0(sp)
    1bbc:	dec00304 	addi	sp,sp,12
    1bc0:	f800283a 	ret

00001bc4 <printf>:
    1bc4:	defffc04 	addi	sp,sp,-16
    1bc8:	dfc00015 	stw	ra,0(sp)
    1bcc:	d9400115 	stw	r5,4(sp)
    1bd0:	d9800215 	stw	r6,8(sp)
    1bd4:	d9c00315 	stw	r7,12(sp)
    1bd8:	008000b4 	movhi	r2,2
    1bdc:	10bc3404 	addi	r2,r2,-3888
    1be0:	10800017 	ldw	r2,0(r2)
    1be4:	200b883a 	mov	r5,r4
    1be8:	d9800104 	addi	r6,sp,4
    1bec:	11000217 	ldw	r4,8(r2)
    1bf0:	00065200 	call	6520 <__vfprintf_internal>
    1bf4:	dfc00017 	ldw	ra,0(sp)
    1bf8:	dec00404 	addi	sp,sp,16
    1bfc:	f800283a 	ret

00001c00 <_putchar_r>:
    1c00:	21800217 	ldw	r6,8(r4)
    1c04:	000d0601 	jmpi	d060 <_putc_r>

00001c08 <putchar>:
    1c08:	008000b4 	movhi	r2,2
    1c0c:	10bc3404 	addi	r2,r2,-3888
    1c10:	200b883a 	mov	r5,r4
    1c14:	11000017 	ldw	r4,0(r2)
    1c18:	21800217 	ldw	r6,8(r4)
    1c1c:	000d0601 	jmpi	d060 <_putc_r>

00001c20 <_puts_r>:
    1c20:	defff604 	addi	sp,sp,-40
    1c24:	dc000715 	stw	r16,28(sp)
    1c28:	2021883a 	mov	r16,r4
    1c2c:	2809883a 	mov	r4,r5
    1c30:	dc400815 	stw	r17,32(sp)
    1c34:	dfc00915 	stw	ra,36(sp)
    1c38:	2823883a 	mov	r17,r5
    1c3c:	0001ea00 	call	1ea0 <strlen>
    1c40:	10c00044 	addi	r3,r2,1
    1c44:	d8800115 	stw	r2,4(sp)
    1c48:	008000b4 	movhi	r2,2
    1c4c:	10b3a904 	addi	r2,r2,-12636
    1c50:	d8800215 	stw	r2,8(sp)
    1c54:	00800044 	movi	r2,1
    1c58:	d8800315 	stw	r2,12(sp)
    1c5c:	00800084 	movi	r2,2
    1c60:	dc400015 	stw	r17,0(sp)
    1c64:	d8c00615 	stw	r3,24(sp)
    1c68:	dec00415 	stw	sp,16(sp)
    1c6c:	d8800515 	stw	r2,20(sp)
    1c70:	80000226 	beq	r16,zero,1c7c <_puts_r+0x5c>
    1c74:	80800e17 	ldw	r2,56(r16)
    1c78:	10001426 	beq	r2,zero,1ccc <_puts_r+0xac>
    1c7c:	81400217 	ldw	r5,8(r16)
    1c80:	2880030b 	ldhu	r2,12(r5)
    1c84:	10c8000c 	andi	r3,r2,8192
    1c88:	1800061e 	bne	r3,zero,1ca4 <_puts_r+0x84>
    1c8c:	29001917 	ldw	r4,100(r5)
    1c90:	00f7ffc4 	movi	r3,-8193
    1c94:	10880014 	ori	r2,r2,8192
    1c98:	20c6703a 	and	r3,r4,r3
    1c9c:	2880030d 	sth	r2,12(r5)
    1ca0:	28c01915 	stw	r3,100(r5)
    1ca4:	d9800404 	addi	r6,sp,16
    1ca8:	8009883a 	mov	r4,r16
    1cac:	000a7540 	call	a754 <__sfvwrite_r>
    1cb0:	1000091e 	bne	r2,zero,1cd8 <_puts_r+0xb8>
    1cb4:	00800284 	movi	r2,10
    1cb8:	dfc00917 	ldw	ra,36(sp)
    1cbc:	dc400817 	ldw	r17,32(sp)
    1cc0:	dc000717 	ldw	r16,28(sp)
    1cc4:	dec00a04 	addi	sp,sp,40
    1cc8:	f800283a 	ret
    1ccc:	8009883a 	mov	r4,r16
    1cd0:	000a0600 	call	a060 <__sinit>
    1cd4:	003fe906 	br	1c7c <__alt_mem_Onchip_SRAM+0xf8001c7c>
    1cd8:	00bfffc4 	movi	r2,-1
    1cdc:	003ff606 	br	1cb8 <__alt_mem_Onchip_SRAM+0xf8001cb8>

00001ce0 <puts>:
    1ce0:	008000b4 	movhi	r2,2
    1ce4:	10bc3404 	addi	r2,r2,-3888
    1ce8:	200b883a 	mov	r5,r4
    1cec:	11000017 	ldw	r4,0(r2)
    1cf0:	0001c201 	jmpi	1c20 <_puts_r>

00001cf4 <srand>:
    1cf4:	008000b4 	movhi	r2,2
    1cf8:	10bc3404 	addi	r2,r2,-3888
    1cfc:	10800017 	ldw	r2,0(r2)
    1d00:	11002915 	stw	r4,164(r2)
    1d04:	10002a15 	stw	zero,168(r2)
    1d08:	f800283a 	ret

00001d0c <rand>:
    1d0c:	008000b4 	movhi	r2,2
    1d10:	defffe04 	addi	sp,sp,-8
    1d14:	10bc3404 	addi	r2,r2,-3888
    1d18:	dc000015 	stw	r16,0(sp)
    1d1c:	14000017 	ldw	r16,0(r2)
    1d20:	dfc00115 	stw	ra,4(sp)
    1d24:	01932574 	movhi	r6,19605
    1d28:	81002917 	ldw	r4,164(r16)
    1d2c:	81402a17 	ldw	r5,168(r16)
    1d30:	01d614b4 	movhi	r7,22610
    1d34:	319fcb44 	addi	r6,r6,32557
    1d38:	39fd0b44 	addi	r7,r7,-3027
    1d3c:	00144100 	call	14410 <__muldi3>
    1d40:	11000044 	addi	r4,r2,1
    1d44:	2085803a 	cmpltu	r2,r4,r2
    1d48:	10c7883a 	add	r3,r2,r3
    1d4c:	00a00034 	movhi	r2,32768
    1d50:	10bfffc4 	addi	r2,r2,-1
    1d54:	1884703a 	and	r2,r3,r2
    1d58:	81002915 	stw	r4,164(r16)
    1d5c:	80c02a15 	stw	r3,168(r16)
    1d60:	dfc00117 	ldw	ra,4(sp)
    1d64:	dc000017 	ldw	r16,0(sp)
    1d68:	dec00204 	addi	sp,sp,8
    1d6c:	f800283a 	ret

00001d70 <scanf>:
    1d70:	defffc04 	addi	sp,sp,-16
    1d74:	dfc00015 	stw	ra,0(sp)
    1d78:	d9400115 	stw	r5,4(sp)
    1d7c:	d9800215 	stw	r6,8(sp)
    1d80:	d9c00315 	stw	r7,12(sp)
    1d84:	008000b4 	movhi	r2,2
    1d88:	10bc3404 	addi	r2,r2,-3888
    1d8c:	200d883a 	mov	r6,r4
    1d90:	11000017 	ldw	r4,0(r2)
    1d94:	d9c00104 	addi	r7,sp,4
    1d98:	21400117 	ldw	r5,4(r4)
    1d9c:	00080080 	call	8008 <_vfscanf_r>
    1da0:	dfc00017 	ldw	ra,0(sp)
    1da4:	dec00404 	addi	sp,sp,16
    1da8:	f800283a 	ret

00001dac <_scanf_r>:
    1dac:	defffd04 	addi	sp,sp,-12
    1db0:	2805883a 	mov	r2,r5
    1db4:	dfc00015 	stw	ra,0(sp)
    1db8:	d9800115 	stw	r6,4(sp)
    1dbc:	d9c00215 	stw	r7,8(sp)
    1dc0:	21400117 	ldw	r5,4(r4)
    1dc4:	d9c00104 	addi	r7,sp,4
    1dc8:	100d883a 	mov	r6,r2
    1dcc:	00080080 	call	8008 <_vfscanf_r>
    1dd0:	dfc00017 	ldw	ra,0(sp)
    1dd4:	dec00304 	addi	sp,sp,12
    1dd8:	f800283a 	ret

00001ddc <_sprintf_r>:
    1ddc:	deffe404 	addi	sp,sp,-112
    1de0:	2807883a 	mov	r3,r5
    1de4:	dfc01a15 	stw	ra,104(sp)
    1de8:	d9c01b15 	stw	r7,108(sp)
    1dec:	00a00034 	movhi	r2,32768
    1df0:	10bfffc4 	addi	r2,r2,-1
    1df4:	02008204 	movi	r8,520
    1df8:	d8800215 	stw	r2,8(sp)
    1dfc:	d8800515 	stw	r2,20(sp)
    1e00:	d9c01b04 	addi	r7,sp,108
    1e04:	d80b883a 	mov	r5,sp
    1e08:	00bfffc4 	movi	r2,-1
    1e0c:	d8c00015 	stw	r3,0(sp)
    1e10:	d8c00415 	stw	r3,16(sp)
    1e14:	da00030d 	sth	r8,12(sp)
    1e18:	d880038d 	sth	r2,14(sp)
    1e1c:	0001f380 	call	1f38 <___svfprintf_internal_r>
    1e20:	d8c00017 	ldw	r3,0(sp)
    1e24:	18000005 	stb	zero,0(r3)
    1e28:	dfc01a17 	ldw	ra,104(sp)
    1e2c:	dec01c04 	addi	sp,sp,112
    1e30:	f800283a 	ret

00001e34 <sprintf>:
    1e34:	deffe304 	addi	sp,sp,-116
    1e38:	2007883a 	mov	r3,r4
    1e3c:	dfc01a15 	stw	ra,104(sp)
    1e40:	d9801b15 	stw	r6,108(sp)
    1e44:	d9c01c15 	stw	r7,112(sp)
    1e48:	010000b4 	movhi	r4,2
    1e4c:	213c3404 	addi	r4,r4,-3888
    1e50:	21000017 	ldw	r4,0(r4)
    1e54:	00a00034 	movhi	r2,32768
    1e58:	10bfffc4 	addi	r2,r2,-1
    1e5c:	280d883a 	mov	r6,r5
    1e60:	02008204 	movi	r8,520
    1e64:	d8800215 	stw	r2,8(sp)
    1e68:	d8800515 	stw	r2,20(sp)
    1e6c:	d9c01b04 	addi	r7,sp,108
    1e70:	d80b883a 	mov	r5,sp
    1e74:	00bfffc4 	movi	r2,-1
    1e78:	d8c00015 	stw	r3,0(sp)
    1e7c:	d8c00415 	stw	r3,16(sp)
    1e80:	da00030d 	sth	r8,12(sp)
    1e84:	d880038d 	sth	r2,14(sp)
    1e88:	0001f380 	call	1f38 <___svfprintf_internal_r>
    1e8c:	d8c00017 	ldw	r3,0(sp)
    1e90:	18000005 	stb	zero,0(r3)
    1e94:	dfc01a17 	ldw	ra,104(sp)
    1e98:	dec01d04 	addi	sp,sp,116
    1e9c:	f800283a 	ret

00001ea0 <strlen>:
    1ea0:	208000cc 	andi	r2,r4,3
    1ea4:	10002026 	beq	r2,zero,1f28 <strlen+0x88>
    1ea8:	20800007 	ldb	r2,0(r4)
    1eac:	10002026 	beq	r2,zero,1f30 <strlen+0x90>
    1eb0:	2005883a 	mov	r2,r4
    1eb4:	00000206 	br	1ec0 <strlen+0x20>
    1eb8:	10c00007 	ldb	r3,0(r2)
    1ebc:	18001826 	beq	r3,zero,1f20 <strlen+0x80>
    1ec0:	10800044 	addi	r2,r2,1
    1ec4:	10c000cc 	andi	r3,r2,3
    1ec8:	183ffb1e 	bne	r3,zero,1eb8 <__alt_mem_Onchip_SRAM+0xf8001eb8>
    1ecc:	10c00017 	ldw	r3,0(r2)
    1ed0:	01ffbff4 	movhi	r7,65279
    1ed4:	39ffbfc4 	addi	r7,r7,-257
    1ed8:	00ca303a 	nor	r5,zero,r3
    1edc:	01a02074 	movhi	r6,32897
    1ee0:	19c7883a 	add	r3,r3,r7
    1ee4:	31a02004 	addi	r6,r6,-32640
    1ee8:	1946703a 	and	r3,r3,r5
    1eec:	1986703a 	and	r3,r3,r6
    1ef0:	1800091e 	bne	r3,zero,1f18 <strlen+0x78>
    1ef4:	10800104 	addi	r2,r2,4
    1ef8:	10c00017 	ldw	r3,0(r2)
    1efc:	19cb883a 	add	r5,r3,r7
    1f00:	00c6303a 	nor	r3,zero,r3
    1f04:	28c6703a 	and	r3,r5,r3
    1f08:	1986703a 	and	r3,r3,r6
    1f0c:	183ff926 	beq	r3,zero,1ef4 <__alt_mem_Onchip_SRAM+0xf8001ef4>
    1f10:	00000106 	br	1f18 <strlen+0x78>
    1f14:	10800044 	addi	r2,r2,1
    1f18:	10c00007 	ldb	r3,0(r2)
    1f1c:	183ffd1e 	bne	r3,zero,1f14 <__alt_mem_Onchip_SRAM+0xf8001f14>
    1f20:	1105c83a 	sub	r2,r2,r4
    1f24:	f800283a 	ret
    1f28:	2005883a 	mov	r2,r4
    1f2c:	003fe706 	br	1ecc <__alt_mem_Onchip_SRAM+0xf8001ecc>
    1f30:	0005883a 	mov	r2,zero
    1f34:	f800283a 	ret

00001f38 <___svfprintf_internal_r>:
    1f38:	deffb704 	addi	sp,sp,-292
    1f3c:	dfc04815 	stw	ra,288(sp)
    1f40:	ddc04615 	stw	r23,280(sp)
    1f44:	d9402d15 	stw	r5,180(sp)
    1f48:	d9003915 	stw	r4,228(sp)
    1f4c:	302f883a 	mov	r23,r6
    1f50:	d9c02e15 	stw	r7,184(sp)
    1f54:	df004715 	stw	fp,284(sp)
    1f58:	dd804515 	stw	r22,276(sp)
    1f5c:	dd404415 	stw	r21,272(sp)
    1f60:	dd004315 	stw	r20,268(sp)
    1f64:	dcc04215 	stw	r19,264(sp)
    1f68:	dc804115 	stw	r18,260(sp)
    1f6c:	dc404015 	stw	r17,256(sp)
    1f70:	dc003f15 	stw	r16,252(sp)
    1f74:	000aedc0 	call	aedc <_localeconv_r>
    1f78:	10800017 	ldw	r2,0(r2)
    1f7c:	1009883a 	mov	r4,r2
    1f80:	d8803415 	stw	r2,208(sp)
    1f84:	0001ea00 	call	1ea0 <strlen>
    1f88:	d8c02d17 	ldw	r3,180(sp)
    1f8c:	d8803815 	stw	r2,224(sp)
    1f90:	1880030b 	ldhu	r2,12(r3)
    1f94:	1080200c 	andi	r2,r2,128
    1f98:	10000226 	beq	r2,zero,1fa4 <___svfprintf_internal_r+0x6c>
    1f9c:	18800417 	ldw	r2,16(r3)
    1fa0:	1006b126 	beq	r2,zero,3a68 <___svfprintf_internal_r+0x1b30>
    1fa4:	dcc03917 	ldw	r19,228(sp)
    1fa8:	d8c00404 	addi	r3,sp,16
    1fac:	054000b4 	movhi	r21,2
    1fb0:	d9001e04 	addi	r4,sp,120
    1fb4:	ad73ba84 	addi	r21,r21,-12566
    1fb8:	d8c01e15 	stw	r3,120(sp)
    1fbc:	d8002015 	stw	zero,128(sp)
    1fc0:	d8001f15 	stw	zero,124(sp)
    1fc4:	d8003315 	stw	zero,204(sp)
    1fc8:	d8003615 	stw	zero,216(sp)
    1fcc:	d8003715 	stw	zero,220(sp)
    1fd0:	1811883a 	mov	r8,r3
    1fd4:	d8003a15 	stw	zero,232(sp)
    1fd8:	d8003b15 	stw	zero,236(sp)
    1fdc:	d8002f15 	stw	zero,188(sp)
    1fe0:	d9002815 	stw	r4,160(sp)
    1fe4:	b8800007 	ldb	r2,0(r23)
    1fe8:	10027726 	beq	r2,zero,29c8 <___svfprintf_internal_r+0xa90>
    1fec:	00c00944 	movi	r3,37
    1ff0:	b823883a 	mov	r17,r23
    1ff4:	10c0021e 	bne	r2,r3,2000 <___svfprintf_internal_r+0xc8>
    1ff8:	00001406 	br	204c <___svfprintf_internal_r+0x114>
    1ffc:	10c00326 	beq	r2,r3,200c <___svfprintf_internal_r+0xd4>
    2000:	8c400044 	addi	r17,r17,1
    2004:	88800007 	ldb	r2,0(r17)
    2008:	103ffc1e 	bne	r2,zero,1ffc <__alt_mem_Onchip_SRAM+0xf8001ffc>
    200c:	8de1c83a 	sub	r16,r17,r23
    2010:	80000e26 	beq	r16,zero,204c <___svfprintf_internal_r+0x114>
    2014:	d8c02017 	ldw	r3,128(sp)
    2018:	d8801f17 	ldw	r2,124(sp)
    201c:	45c00015 	stw	r23,0(r8)
    2020:	1c07883a 	add	r3,r3,r16
    2024:	10800044 	addi	r2,r2,1
    2028:	d8c02015 	stw	r3,128(sp)
    202c:	44000115 	stw	r16,4(r8)
    2030:	d8801f15 	stw	r2,124(sp)
    2034:	00c001c4 	movi	r3,7
    2038:	18809916 	blt	r3,r2,22a0 <___svfprintf_internal_r+0x368>
    203c:	42000204 	addi	r8,r8,8
    2040:	d9402f17 	ldw	r5,188(sp)
    2044:	2c0b883a 	add	r5,r5,r16
    2048:	d9402f15 	stw	r5,188(sp)
    204c:	88800007 	ldb	r2,0(r17)
    2050:	10009a26 	beq	r2,zero,22bc <___svfprintf_internal_r+0x384>
    2054:	8dc00044 	addi	r23,r17,1
    2058:	8c400047 	ldb	r17,1(r17)
    205c:	0021883a 	mov	r16,zero
    2060:	00bfffc4 	movi	r2,-1
    2064:	0025883a 	mov	r18,zero
    2068:	dc002905 	stb	r16,164(sp)
    206c:	d8002785 	stb	zero,158(sp)
    2070:	d8002b05 	stb	zero,172(sp)
    2074:	d8802a15 	stw	r2,168(sp)
    2078:	d8003115 	stw	zero,196(sp)
    207c:	05001604 	movi	r20,88
    2080:	05800244 	movi	r22,9
    2084:	4039883a 	mov	fp,r8
    2088:	9021883a 	mov	r16,r18
    208c:	bdc00044 	addi	r23,r23,1
    2090:	88bff804 	addi	r2,r17,-32
    2094:	a0831e36 	bltu	r20,r2,2d10 <___svfprintf_internal_r+0xdd8>
    2098:	100490ba 	slli	r2,r2,2
    209c:	00c00034 	movhi	r3,0
    20a0:	18c82c04 	addi	r3,r3,8368
    20a4:	10c5883a 	add	r2,r2,r3
    20a8:	10800017 	ldw	r2,0(r2)
    20ac:	1000683a 	jmp	r2
    20b0:	00002c58 	cmpnei	zero,zero,177
    20b4:	00002d10 	cmplti	zero,zero,180
    20b8:	00002d10 	cmplti	zero,zero,180
    20bc:	00002c4c 	andi	zero,zero,177
    20c0:	00002d10 	cmplti	zero,zero,180
    20c4:	00002d10 	cmplti	zero,zero,180
    20c8:	00002d10 	cmplti	zero,zero,180
    20cc:	00002d10 	cmplti	zero,zero,180
    20d0:	00002d10 	cmplti	zero,zero,180
    20d4:	00002d10 	cmplti	zero,zero,180
    20d8:	00002318 	cmpnei	zero,zero,140
    20dc:	00002b5c 	xori	zero,zero,173
    20e0:	00002d10 	cmplti	zero,zero,180
    20e4:	00002224 	muli	zero,zero,136
    20e8:	0000233c 	xorhi	zero,zero,140
    20ec:	00002d10 	cmplti	zero,zero,180
    20f0:	000023c8 	cmpgei	zero,zero,143
    20f4:	0000238c 	andi	zero,zero,142
    20f8:	0000238c 	andi	zero,zero,142
    20fc:	0000238c 	andi	zero,zero,142
    2100:	0000238c 	andi	zero,zero,142
    2104:	0000238c 	andi	zero,zero,142
    2108:	0000238c 	andi	zero,zero,142
    210c:	0000238c 	andi	zero,zero,142
    2110:	0000238c 	andi	zero,zero,142
    2114:	0000238c 	andi	zero,zero,142
    2118:	00002d10 	cmplti	zero,zero,180
    211c:	00002d10 	cmplti	zero,zero,180
    2120:	00002d10 	cmplti	zero,zero,180
    2124:	00002d10 	cmplti	zero,zero,180
    2128:	00002d10 	cmplti	zero,zero,180
    212c:	00002d10 	cmplti	zero,zero,180
    2130:	00002d10 	cmplti	zero,zero,180
    2134:	00002d10 	cmplti	zero,zero,180
    2138:	00002d10 	cmplti	zero,zero,180
    213c:	00002d10 	cmplti	zero,zero,180
    2140:	0000248c 	andi	zero,zero,146
    2144:	000023d4 	movui	zero,143
    2148:	00002d10 	cmplti	zero,zero,180
    214c:	000023d4 	movui	zero,143
    2150:	00002d10 	cmplti	zero,zero,180
    2154:	00002d10 	cmplti	zero,zero,180
    2158:	00002d10 	cmplti	zero,zero,180
    215c:	00002d10 	cmplti	zero,zero,180
    2160:	00002480 	call	248 <_start+0x18>
    2164:	00002d10 	cmplti	zero,zero,180
    2168:	00002d10 	cmplti	zero,zero,180
    216c:	00002554 	movui	zero,149
    2170:	00002d10 	cmplti	zero,zero,180
    2174:	00002d10 	cmplti	zero,zero,180
    2178:	00002d10 	cmplti	zero,zero,180
    217c:	00002d10 	cmplti	zero,zero,180
    2180:	00002d10 	cmplti	zero,zero,180
    2184:	000029d0 	cmplti	zero,zero,167
    2188:	00002d10 	cmplti	zero,zero,180
    218c:	00002d10 	cmplti	zero,zero,180
    2190:	00002a3c 	xorhi	zero,zero,168
    2194:	00002d10 	cmplti	zero,zero,180
    2198:	00002d10 	cmplti	zero,zero,180
    219c:	00002d10 	cmplti	zero,zero,180
    21a0:	00002d10 	cmplti	zero,zero,180
    21a4:	00002d10 	cmplti	zero,zero,180
    21a8:	00002d10 	cmplti	zero,zero,180
    21ac:	00002d10 	cmplti	zero,zero,180
    21b0:	00002d10 	cmplti	zero,zero,180
    21b4:	00002d10 	cmplti	zero,zero,180
    21b8:	00002d10 	cmplti	zero,zero,180
    21bc:	00002af8 	rdprs	zero,zero,171
    21c0:	00002c78 	rdprs	zero,zero,177
    21c4:	000023d4 	movui	zero,143
    21c8:	000023d4 	movui	zero,143
    21cc:	000023d4 	movui	zero,143
    21d0:	00002cec 	andhi	zero,zero,179
    21d4:	00002c78 	rdprs	zero,zero,177
    21d8:	00002d10 	cmplti	zero,zero,180
    21dc:	00002d10 	cmplti	zero,zero,180
    21e0:	00002c98 	cmpnei	zero,zero,178
    21e4:	00002d10 	cmplti	zero,zero,180
    21e8:	00002cac 	andhi	zero,zero,178
    21ec:	00002b3c 	xorhi	zero,zero,172
    21f0:	00002230 	cmpltui	zero,zero,136
    21f4:	00002b74 	movhi	zero,173
    21f8:	00002d10 	cmplti	zero,zero,180
    21fc:	00002b80 	call	2b8 <servo_setAngle+0x4c>
    2200:	00002d10 	cmplti	zero,zero,180
    2204:	00002be4 	muli	zero,zero,175
    2208:	00002d10 	cmplti	zero,zero,180
    220c:	00002d10 	cmplti	zero,zero,180
    2210:	00002c04 	movi	zero,176
    2214:	d8c03117 	ldw	r3,196(sp)
    2218:	d8802e15 	stw	r2,184(sp)
    221c:	00c7c83a 	sub	r3,zero,r3
    2220:	d8c03115 	stw	r3,196(sp)
    2224:	84000114 	ori	r16,r16,4
    2228:	bc400007 	ldb	r17,0(r23)
    222c:	003f9706 	br	208c <__alt_mem_Onchip_SRAM+0xf800208c>
    2230:	00800c04 	movi	r2,48
    2234:	d8802705 	stb	r2,156(sp)
    2238:	00801e04 	movi	r2,120
    223c:	d8802745 	stb	r2,157(sp)
    2240:	d9002a17 	ldw	r4,168(sp)
    2244:	d8802e17 	ldw	r2,184(sp)
    2248:	d8002785 	stb	zero,158(sp)
    224c:	e011883a 	mov	r8,fp
    2250:	10c00104 	addi	r3,r2,4
    2254:	15000017 	ldw	r20,0(r2)
    2258:	002d883a 	mov	r22,zero
    225c:	80800094 	ori	r2,r16,2
    2260:	2002b616 	blt	r4,zero,2d3c <___svfprintf_internal_r+0xe04>
    2264:	00bfdfc4 	movi	r2,-129
    2268:	80a4703a 	and	r18,r16,r2
    226c:	d8c02e15 	stw	r3,184(sp)
    2270:	94800094 	ori	r18,r18,2
    2274:	a002a01e 	bne	r20,zero,2cf8 <___svfprintf_internal_r+0xdc0>
    2278:	014000b4 	movhi	r5,2
    227c:	2973b304 	addi	r5,r5,-12596
    2280:	d9403a15 	stw	r5,232(sp)
    2284:	04401e04 	movi	r17,120
    2288:	d8c02a17 	ldw	r3,168(sp)
    228c:	0039883a 	mov	fp,zero
    2290:	1801e626 	beq	r3,zero,2a2c <___svfprintf_internal_r+0xaf4>
    2294:	0029883a 	mov	r20,zero
    2298:	002d883a 	mov	r22,zero
    229c:	00020506 	br	2ab4 <___svfprintf_internal_r+0xb7c>
    22a0:	d9402d17 	ldw	r5,180(sp)
    22a4:	d9801e04 	addi	r6,sp,120
    22a8:	9809883a 	mov	r4,r19
    22ac:	000ff600 	call	ff60 <__ssprint_r>
    22b0:	1000081e 	bne	r2,zero,22d4 <___svfprintf_internal_r+0x39c>
    22b4:	da000404 	addi	r8,sp,16
    22b8:	003f6106 	br	2040 <__alt_mem_Onchip_SRAM+0xf8002040>
    22bc:	d8802017 	ldw	r2,128(sp)
    22c0:	10000426 	beq	r2,zero,22d4 <___svfprintf_internal_r+0x39c>
    22c4:	d9402d17 	ldw	r5,180(sp)
    22c8:	d9003917 	ldw	r4,228(sp)
    22cc:	d9801e04 	addi	r6,sp,120
    22d0:	000ff600 	call	ff60 <__ssprint_r>
    22d4:	d8802d17 	ldw	r2,180(sp)
    22d8:	10c0030b 	ldhu	r3,12(r2)
    22dc:	d8802f17 	ldw	r2,188(sp)
    22e0:	18c0100c 	andi	r3,r3,64
    22e4:	1806251e 	bne	r3,zero,3b7c <___svfprintf_internal_r+0x1c44>
    22e8:	dfc04817 	ldw	ra,288(sp)
    22ec:	df004717 	ldw	fp,284(sp)
    22f0:	ddc04617 	ldw	r23,280(sp)
    22f4:	dd804517 	ldw	r22,276(sp)
    22f8:	dd404417 	ldw	r21,272(sp)
    22fc:	dd004317 	ldw	r20,268(sp)
    2300:	dcc04217 	ldw	r19,264(sp)
    2304:	dc804117 	ldw	r18,260(sp)
    2308:	dc404017 	ldw	r17,256(sp)
    230c:	dc003f17 	ldw	r16,252(sp)
    2310:	dec04904 	addi	sp,sp,292
    2314:	f800283a 	ret
    2318:	d9002e17 	ldw	r4,184(sp)
    231c:	d9402e17 	ldw	r5,184(sp)
    2320:	21000017 	ldw	r4,0(r4)
    2324:	28800104 	addi	r2,r5,4
    2328:	d9003115 	stw	r4,196(sp)
    232c:	203fb916 	blt	r4,zero,2214 <__alt_mem_Onchip_SRAM+0xf8002214>
    2330:	d8802e15 	stw	r2,184(sp)
    2334:	bc400007 	ldb	r17,0(r23)
    2338:	003f5406 	br	208c <__alt_mem_Onchip_SRAM+0xf800208c>
    233c:	bc400007 	ldb	r17,0(r23)
    2340:	01000a84 	movi	r4,42
    2344:	b8c00044 	addi	r3,r23,1
    2348:	89076926 	beq	r17,r4,40f0 <___svfprintf_internal_r+0x21b8>
    234c:	8cbff404 	addi	r18,r17,-48
    2350:	b486b936 	bltu	r22,r18,3e38 <___svfprintf_internal_r+0x1f00>
    2354:	0009883a 	mov	r4,zero
    2358:	1823883a 	mov	r17,r3
    235c:	01400284 	movi	r5,10
    2360:	00019740 	call	1974 <__mulsi3>
    2364:	88c00007 	ldb	r3,0(r17)
    2368:	1489883a 	add	r4,r2,r18
    236c:	8dc00044 	addi	r23,r17,1
    2370:	1cbff404 	addi	r18,r3,-48
    2374:	b823883a 	mov	r17,r23
    2378:	b4bff82e 	bgeu	r22,r18,235c <__alt_mem_Onchip_SRAM+0xf800235c>
    237c:	1823883a 	mov	r17,r3
    2380:	20060416 	blt	r4,zero,3b94 <___svfprintf_internal_r+0x1c5c>
    2384:	d9002a15 	stw	r4,168(sp)
    2388:	003f4106 	br	2090 <__alt_mem_Onchip_SRAM+0xf8002090>
    238c:	8cbff404 	addi	r18,r17,-48
    2390:	d8003115 	stw	zero,196(sp)
    2394:	0009883a 	mov	r4,zero
    2398:	b823883a 	mov	r17,r23
    239c:	01400284 	movi	r5,10
    23a0:	00019740 	call	1974 <__mulsi3>
    23a4:	88c00007 	ldb	r3,0(r17)
    23a8:	9089883a 	add	r4,r18,r2
    23ac:	bdc00044 	addi	r23,r23,1
    23b0:	1cbff404 	addi	r18,r3,-48
    23b4:	b823883a 	mov	r17,r23
    23b8:	b4bff82e 	bgeu	r22,r18,239c <__alt_mem_Onchip_SRAM+0xf800239c>
    23bc:	1823883a 	mov	r17,r3
    23c0:	d9003115 	stw	r4,196(sp)
    23c4:	003f3206 	br	2090 <__alt_mem_Onchip_SRAM+0xf8002090>
    23c8:	84002014 	ori	r16,r16,128
    23cc:	bc400007 	ldb	r17,0(r23)
    23d0:	003f2e06 	br	208c <__alt_mem_Onchip_SRAM+0xf800208c>
    23d4:	8025883a 	mov	r18,r16
    23d8:	dc002903 	ldbu	r16,164(sp)
    23dc:	e011883a 	mov	r8,fp
    23e0:	84003fcc 	andi	r16,r16,255
    23e4:	8007721e 	bne	r16,zero,41b0 <___svfprintf_internal_r+0x2278>
    23e8:	9080020c 	andi	r2,r18,8
    23ec:	1004a526 	beq	r2,zero,3684 <___svfprintf_internal_r+0x174c>
    23f0:	d9002e17 	ldw	r4,184(sp)
    23f4:	d9402e17 	ldw	r5,184(sp)
    23f8:	d8802e17 	ldw	r2,184(sp)
    23fc:	21000017 	ldw	r4,0(r4)
    2400:	29400117 	ldw	r5,4(r5)
    2404:	10800204 	addi	r2,r2,8
    2408:	d9003615 	stw	r4,216(sp)
    240c:	d9403715 	stw	r5,220(sp)
    2410:	d8802e15 	stw	r2,184(sp)
    2414:	d9003617 	ldw	r4,216(sp)
    2418:	d9403717 	ldw	r5,220(sp)
    241c:	da003e15 	stw	r8,248(sp)
    2420:	04000044 	movi	r16,1
    2424:	000d91c0 	call	d91c <__fpclassifyd>
    2428:	da003e17 	ldw	r8,248(sp)
    242c:	1404731e 	bne	r2,r16,35fc <___svfprintf_internal_r+0x16c4>
    2430:	d9003617 	ldw	r4,216(sp)
    2434:	d9403717 	ldw	r5,220(sp)
    2438:	000d883a 	mov	r6,zero
    243c:	000f883a 	mov	r7,zero
    2440:	001672c0 	call	1672c <__ledf2>
    2444:	da003e17 	ldw	r8,248(sp)
    2448:	10061b16 	blt	r2,zero,3cb8 <___svfprintf_internal_r+0x1d80>
    244c:	df002783 	ldbu	fp,158(sp)
    2450:	008011c4 	movi	r2,71
    2454:	1445810e 	bge	r2,r17,3a5c <___svfprintf_internal_r+0x1b24>
    2458:	040000b4 	movhi	r16,2
    245c:	8433ab04 	addi	r16,r16,-12628
    2460:	00c000c4 	movi	r3,3
    2464:	00bfdfc4 	movi	r2,-129
    2468:	d8c02915 	stw	r3,164(sp)
    246c:	90a4703a 	and	r18,r18,r2
    2470:	d8c02b15 	stw	r3,172(sp)
    2474:	d8002a15 	stw	zero,168(sp)
    2478:	d8003215 	stw	zero,200(sp)
    247c:	00006c06 	br	2630 <___svfprintf_internal_r+0x6f8>
    2480:	84000214 	ori	r16,r16,8
    2484:	bc400007 	ldb	r17,0(r23)
    2488:	003f0006 	br	208c <__alt_mem_Onchip_SRAM+0xf800208c>
    248c:	8025883a 	mov	r18,r16
    2490:	dc002903 	ldbu	r16,164(sp)
    2494:	e011883a 	mov	r8,fp
    2498:	84003fcc 	andi	r16,r16,255
    249c:	80073f1e 	bne	r16,zero,419c <___svfprintf_internal_r+0x2264>
    24a0:	94800414 	ori	r18,r18,16
    24a4:	9080080c 	andi	r2,r18,32
    24a8:	1003bb26 	beq	r2,zero,3398 <___svfprintf_internal_r+0x1460>
    24ac:	d9002e17 	ldw	r4,184(sp)
    24b0:	20800117 	ldw	r2,4(r4)
    24b4:	25000017 	ldw	r20,0(r4)
    24b8:	21000204 	addi	r4,r4,8
    24bc:	d9002e15 	stw	r4,184(sp)
    24c0:	102d883a 	mov	r22,r2
    24c4:	1003bd16 	blt	r2,zero,33bc <___svfprintf_internal_r+0x1484>
    24c8:	d9002a17 	ldw	r4,168(sp)
    24cc:	df002783 	ldbu	fp,158(sp)
    24d0:	2003d016 	blt	r4,zero,3414 <___svfprintf_internal_r+0x14dc>
    24d4:	00ffdfc4 	movi	r3,-129
    24d8:	a584b03a 	or	r2,r20,r22
    24dc:	90e4703a 	and	r18,r18,r3
    24e0:	10015026 	beq	r2,zero,2a24 <___svfprintf_internal_r+0xaec>
    24e4:	b0037026 	beq	r22,zero,32a8 <___svfprintf_internal_r+0x1370>
    24e8:	dc402915 	stw	r17,164(sp)
    24ec:	dc001e04 	addi	r16,sp,120
    24f0:	b023883a 	mov	r17,r22
    24f4:	402d883a 	mov	r22,r8
    24f8:	a009883a 	mov	r4,r20
    24fc:	880b883a 	mov	r5,r17
    2500:	01800284 	movi	r6,10
    2504:	000f883a 	mov	r7,zero
    2508:	0014b8c0 	call	14b8c <__umoddi3>
    250c:	10800c04 	addi	r2,r2,48
    2510:	843fffc4 	addi	r16,r16,-1
    2514:	a009883a 	mov	r4,r20
    2518:	880b883a 	mov	r5,r17
    251c:	80800005 	stb	r2,0(r16)
    2520:	01800284 	movi	r6,10
    2524:	000f883a 	mov	r7,zero
    2528:	00145900 	call	14590 <__udivdi3>
    252c:	1029883a 	mov	r20,r2
    2530:	10c4b03a 	or	r2,r2,r3
    2534:	1823883a 	mov	r17,r3
    2538:	103fef1e 	bne	r2,zero,24f8 <__alt_mem_Onchip_SRAM+0xf80024f8>
    253c:	d8c02817 	ldw	r3,160(sp)
    2540:	dc402917 	ldw	r17,164(sp)
    2544:	b011883a 	mov	r8,r22
    2548:	1c07c83a 	sub	r3,r3,r16
    254c:	d8c02b15 	stw	r3,172(sp)
    2550:	00003106 	br	2618 <___svfprintf_internal_r+0x6e0>
    2554:	8025883a 	mov	r18,r16
    2558:	dc002903 	ldbu	r16,164(sp)
    255c:	e011883a 	mov	r8,fp
    2560:	84003fcc 	andi	r16,r16,255
    2564:	80070a1e 	bne	r16,zero,4190 <___svfprintf_internal_r+0x2258>
    2568:	94800414 	ori	r18,r18,16
    256c:	9080080c 	andi	r2,r18,32
    2570:	1002f626 	beq	r2,zero,314c <___svfprintf_internal_r+0x1214>
    2574:	d9002e17 	ldw	r4,184(sp)
    2578:	d9402a17 	ldw	r5,168(sp)
    257c:	d8002785 	stb	zero,158(sp)
    2580:	20800204 	addi	r2,r4,8
    2584:	25000017 	ldw	r20,0(r4)
    2588:	25800117 	ldw	r22,4(r4)
    258c:	28043716 	blt	r5,zero,366c <___svfprintf_internal_r+0x1734>
    2590:	013fdfc4 	movi	r4,-129
    2594:	a586b03a 	or	r3,r20,r22
    2598:	d8802e15 	stw	r2,184(sp)
    259c:	9124703a 	and	r18,r18,r4
    25a0:	1802f71e 	bne	r3,zero,3180 <___svfprintf_internal_r+0x1248>
    25a4:	d9402a17 	ldw	r5,168(sp)
    25a8:	0039883a 	mov	fp,zero
    25ac:	2806df26 	beq	r5,zero,412c <___svfprintf_internal_r+0x21f4>
    25b0:	0029883a 	mov	r20,zero
    25b4:	002d883a 	mov	r22,zero
    25b8:	dc001e04 	addi	r16,sp,120
    25bc:	a006d0fa 	srli	r3,r20,3
    25c0:	b008977a 	slli	r4,r22,29
    25c4:	b02cd0fa 	srli	r22,r22,3
    25c8:	a50001cc 	andi	r20,r20,7
    25cc:	a0800c04 	addi	r2,r20,48
    25d0:	843fffc4 	addi	r16,r16,-1
    25d4:	20e8b03a 	or	r20,r4,r3
    25d8:	80800005 	stb	r2,0(r16)
    25dc:	a586b03a 	or	r3,r20,r22
    25e0:	183ff61e 	bne	r3,zero,25bc <__alt_mem_Onchip_SRAM+0xf80025bc>
    25e4:	90c0004c 	andi	r3,r18,1
    25e8:	18013f26 	beq	r3,zero,2ae8 <___svfprintf_internal_r+0xbb0>
    25ec:	10803fcc 	andi	r2,r2,255
    25f0:	1080201c 	xori	r2,r2,128
    25f4:	10bfe004 	addi	r2,r2,-128
    25f8:	00c00c04 	movi	r3,48
    25fc:	10c13a26 	beq	r2,r3,2ae8 <___svfprintf_internal_r+0xbb0>
    2600:	80ffffc5 	stb	r3,-1(r16)
    2604:	d8c02817 	ldw	r3,160(sp)
    2608:	80bfffc4 	addi	r2,r16,-1
    260c:	1021883a 	mov	r16,r2
    2610:	1887c83a 	sub	r3,r3,r2
    2614:	d8c02b15 	stw	r3,172(sp)
    2618:	d8802b17 	ldw	r2,172(sp)
    261c:	d9002a17 	ldw	r4,168(sp)
    2620:	1100010e 	bge	r2,r4,2628 <___svfprintf_internal_r+0x6f0>
    2624:	2005883a 	mov	r2,r4
    2628:	d8802915 	stw	r2,164(sp)
    262c:	d8003215 	stw	zero,200(sp)
    2630:	e7003fcc 	andi	fp,fp,255
    2634:	e700201c 	xori	fp,fp,128
    2638:	e73fe004 	addi	fp,fp,-128
    263c:	e0000326 	beq	fp,zero,264c <___svfprintf_internal_r+0x714>
    2640:	d8c02917 	ldw	r3,164(sp)
    2644:	18c00044 	addi	r3,r3,1
    2648:	d8c02915 	stw	r3,164(sp)
    264c:	90c0008c 	andi	r3,r18,2
    2650:	d8c02c15 	stw	r3,176(sp)
    2654:	18000326 	beq	r3,zero,2664 <___svfprintf_internal_r+0x72c>
    2658:	d8c02917 	ldw	r3,164(sp)
    265c:	18c00084 	addi	r3,r3,2
    2660:	d8c02915 	stw	r3,164(sp)
    2664:	90c0210c 	andi	r3,r18,132
    2668:	d8c03015 	stw	r3,192(sp)
    266c:	1801c31e 	bne	r3,zero,2d7c <___svfprintf_internal_r+0xe44>
    2670:	d9003117 	ldw	r4,196(sp)
    2674:	d8c02917 	ldw	r3,164(sp)
    2678:	20e9c83a 	sub	r20,r4,r3
    267c:	0501bf0e 	bge	zero,r20,2d7c <___svfprintf_internal_r+0xe44>
    2680:	02400404 	movi	r9,16
    2684:	d8c02017 	ldw	r3,128(sp)
    2688:	d8801f17 	ldw	r2,124(sp)
    268c:	4d053d0e 	bge	r9,r20,3b84 <___svfprintf_internal_r+0x1c4c>
    2690:	014000b4 	movhi	r5,2
    2694:	2973be84 	addi	r5,r5,-12550
    2698:	dc403c15 	stw	r17,240(sp)
    269c:	d9403515 	stw	r5,212(sp)
    26a0:	a023883a 	mov	r17,r20
    26a4:	482d883a 	mov	r22,r9
    26a8:	9029883a 	mov	r20,r18
    26ac:	070001c4 	movi	fp,7
    26b0:	8025883a 	mov	r18,r16
    26b4:	dc002d17 	ldw	r16,180(sp)
    26b8:	00000306 	br	26c8 <___svfprintf_internal_r+0x790>
    26bc:	8c7ffc04 	addi	r17,r17,-16
    26c0:	42000204 	addi	r8,r8,8
    26c4:	b440130e 	bge	r22,r17,2714 <___svfprintf_internal_r+0x7dc>
    26c8:	010000b4 	movhi	r4,2
    26cc:	18c00404 	addi	r3,r3,16
    26d0:	10800044 	addi	r2,r2,1
    26d4:	2133be84 	addi	r4,r4,-12550
    26d8:	41000015 	stw	r4,0(r8)
    26dc:	45800115 	stw	r22,4(r8)
    26e0:	d8c02015 	stw	r3,128(sp)
    26e4:	d8801f15 	stw	r2,124(sp)
    26e8:	e0bff40e 	bge	fp,r2,26bc <__alt_mem_Onchip_SRAM+0xf80026bc>
    26ec:	d9801e04 	addi	r6,sp,120
    26f0:	800b883a 	mov	r5,r16
    26f4:	9809883a 	mov	r4,r19
    26f8:	000ff600 	call	ff60 <__ssprint_r>
    26fc:	103ef51e 	bne	r2,zero,22d4 <__alt_mem_Onchip_SRAM+0xf80022d4>
    2700:	8c7ffc04 	addi	r17,r17,-16
    2704:	d8c02017 	ldw	r3,128(sp)
    2708:	d8801f17 	ldw	r2,124(sp)
    270c:	da000404 	addi	r8,sp,16
    2710:	b47fed16 	blt	r22,r17,26c8 <__alt_mem_Onchip_SRAM+0xf80026c8>
    2714:	9021883a 	mov	r16,r18
    2718:	a025883a 	mov	r18,r20
    271c:	8829883a 	mov	r20,r17
    2720:	dc403c17 	ldw	r17,240(sp)
    2724:	d9403517 	ldw	r5,212(sp)
    2728:	a0c7883a 	add	r3,r20,r3
    272c:	10800044 	addi	r2,r2,1
    2730:	41400015 	stw	r5,0(r8)
    2734:	45000115 	stw	r20,4(r8)
    2738:	d8c02015 	stw	r3,128(sp)
    273c:	d8801f15 	stw	r2,124(sp)
    2740:	010001c4 	movi	r4,7
    2744:	2082c116 	blt	r4,r2,324c <___svfprintf_internal_r+0x1314>
    2748:	df002787 	ldb	fp,158(sp)
    274c:	42000204 	addi	r8,r8,8
    2750:	e0000c26 	beq	fp,zero,2784 <___svfprintf_internal_r+0x84c>
    2754:	d8801f17 	ldw	r2,124(sp)
    2758:	d9002784 	addi	r4,sp,158
    275c:	18c00044 	addi	r3,r3,1
    2760:	10800044 	addi	r2,r2,1
    2764:	41000015 	stw	r4,0(r8)
    2768:	01000044 	movi	r4,1
    276c:	41000115 	stw	r4,4(r8)
    2770:	d8c02015 	stw	r3,128(sp)
    2774:	d8801f15 	stw	r2,124(sp)
    2778:	010001c4 	movi	r4,7
    277c:	20825a16 	blt	r4,r2,30e8 <___svfprintf_internal_r+0x11b0>
    2780:	42000204 	addi	r8,r8,8
    2784:	d8802c17 	ldw	r2,176(sp)
    2788:	10000c26 	beq	r2,zero,27bc <___svfprintf_internal_r+0x884>
    278c:	d8801f17 	ldw	r2,124(sp)
    2790:	d9002704 	addi	r4,sp,156
    2794:	18c00084 	addi	r3,r3,2
    2798:	10800044 	addi	r2,r2,1
    279c:	41000015 	stw	r4,0(r8)
    27a0:	01000084 	movi	r4,2
    27a4:	41000115 	stw	r4,4(r8)
    27a8:	d8c02015 	stw	r3,128(sp)
    27ac:	d8801f15 	stw	r2,124(sp)
    27b0:	010001c4 	movi	r4,7
    27b4:	20825416 	blt	r4,r2,3108 <___svfprintf_internal_r+0x11d0>
    27b8:	42000204 	addi	r8,r8,8
    27bc:	d9003017 	ldw	r4,192(sp)
    27c0:	00802004 	movi	r2,128
    27c4:	2081b926 	beq	r4,r2,2eac <___svfprintf_internal_r+0xf74>
    27c8:	d9402a17 	ldw	r5,168(sp)
    27cc:	d8802b17 	ldw	r2,172(sp)
    27d0:	28adc83a 	sub	r22,r5,r2
    27d4:	05802f0e 	bge	zero,r22,2894 <___svfprintf_internal_r+0x95c>
    27d8:	07000404 	movi	fp,16
    27dc:	d8801f17 	ldw	r2,124(sp)
    27e0:	e583e20e 	bge	fp,r22,376c <___svfprintf_internal_r+0x1834>
    27e4:	014000b4 	movhi	r5,2
    27e8:	2973ba84 	addi	r5,r5,-12566
    27ec:	dc402a15 	stw	r17,168(sp)
    27f0:	d9402c15 	stw	r5,176(sp)
    27f4:	b023883a 	mov	r17,r22
    27f8:	050001c4 	movi	r20,7
    27fc:	902d883a 	mov	r22,r18
    2800:	8025883a 	mov	r18,r16
    2804:	dc002d17 	ldw	r16,180(sp)
    2808:	00000306 	br	2818 <___svfprintf_internal_r+0x8e0>
    280c:	8c7ffc04 	addi	r17,r17,-16
    2810:	42000204 	addi	r8,r8,8
    2814:	e440110e 	bge	fp,r17,285c <___svfprintf_internal_r+0x924>
    2818:	18c00404 	addi	r3,r3,16
    281c:	10800044 	addi	r2,r2,1
    2820:	45400015 	stw	r21,0(r8)
    2824:	47000115 	stw	fp,4(r8)
    2828:	d8c02015 	stw	r3,128(sp)
    282c:	d8801f15 	stw	r2,124(sp)
    2830:	a0bff60e 	bge	r20,r2,280c <__alt_mem_Onchip_SRAM+0xf800280c>
    2834:	d9801e04 	addi	r6,sp,120
    2838:	800b883a 	mov	r5,r16
    283c:	9809883a 	mov	r4,r19
    2840:	000ff600 	call	ff60 <__ssprint_r>
    2844:	103ea31e 	bne	r2,zero,22d4 <__alt_mem_Onchip_SRAM+0xf80022d4>
    2848:	8c7ffc04 	addi	r17,r17,-16
    284c:	d8c02017 	ldw	r3,128(sp)
    2850:	d8801f17 	ldw	r2,124(sp)
    2854:	da000404 	addi	r8,sp,16
    2858:	e47fef16 	blt	fp,r17,2818 <__alt_mem_Onchip_SRAM+0xf8002818>
    285c:	9021883a 	mov	r16,r18
    2860:	b025883a 	mov	r18,r22
    2864:	882d883a 	mov	r22,r17
    2868:	dc402a17 	ldw	r17,168(sp)
    286c:	d9002c17 	ldw	r4,176(sp)
    2870:	1d87883a 	add	r3,r3,r22
    2874:	10800044 	addi	r2,r2,1
    2878:	41000015 	stw	r4,0(r8)
    287c:	45800115 	stw	r22,4(r8)
    2880:	d8c02015 	stw	r3,128(sp)
    2884:	d8801f15 	stw	r2,124(sp)
    2888:	010001c4 	movi	r4,7
    288c:	20820e16 	blt	r4,r2,30c8 <___svfprintf_internal_r+0x1190>
    2890:	42000204 	addi	r8,r8,8
    2894:	9080400c 	andi	r2,r18,256
    2898:	10013a1e 	bne	r2,zero,2d84 <___svfprintf_internal_r+0xe4c>
    289c:	d9402b17 	ldw	r5,172(sp)
    28a0:	d8801f17 	ldw	r2,124(sp)
    28a4:	44000015 	stw	r16,0(r8)
    28a8:	1947883a 	add	r3,r3,r5
    28ac:	10800044 	addi	r2,r2,1
    28b0:	41400115 	stw	r5,4(r8)
    28b4:	d8c02015 	stw	r3,128(sp)
    28b8:	d8801f15 	stw	r2,124(sp)
    28bc:	010001c4 	movi	r4,7
    28c0:	2081f316 	blt	r4,r2,3090 <___svfprintf_internal_r+0x1158>
    28c4:	42000204 	addi	r8,r8,8
    28c8:	9480010c 	andi	r18,r18,4
    28cc:	90003226 	beq	r18,zero,2998 <___svfprintf_internal_r+0xa60>
    28d0:	d9403117 	ldw	r5,196(sp)
    28d4:	d8802917 	ldw	r2,164(sp)
    28d8:	28a1c83a 	sub	r16,r5,r2
    28dc:	04002e0e 	bge	zero,r16,2998 <___svfprintf_internal_r+0xa60>
    28e0:	04400404 	movi	r17,16
    28e4:	d8801f17 	ldw	r2,124(sp)
    28e8:	8c04db0e 	bge	r17,r16,3c58 <___svfprintf_internal_r+0x1d20>
    28ec:	014000b4 	movhi	r5,2
    28f0:	2973be84 	addi	r5,r5,-12550
    28f4:	d9403515 	stw	r5,212(sp)
    28f8:	048001c4 	movi	r18,7
    28fc:	dd002d17 	ldw	r20,180(sp)
    2900:	00000306 	br	2910 <___svfprintf_internal_r+0x9d8>
    2904:	843ffc04 	addi	r16,r16,-16
    2908:	42000204 	addi	r8,r8,8
    290c:	8c00130e 	bge	r17,r16,295c <___svfprintf_internal_r+0xa24>
    2910:	010000b4 	movhi	r4,2
    2914:	18c00404 	addi	r3,r3,16
    2918:	10800044 	addi	r2,r2,1
    291c:	2133be84 	addi	r4,r4,-12550
    2920:	41000015 	stw	r4,0(r8)
    2924:	44400115 	stw	r17,4(r8)
    2928:	d8c02015 	stw	r3,128(sp)
    292c:	d8801f15 	stw	r2,124(sp)
    2930:	90bff40e 	bge	r18,r2,2904 <__alt_mem_Onchip_SRAM+0xf8002904>
    2934:	d9801e04 	addi	r6,sp,120
    2938:	a00b883a 	mov	r5,r20
    293c:	9809883a 	mov	r4,r19
    2940:	000ff600 	call	ff60 <__ssprint_r>
    2944:	103e631e 	bne	r2,zero,22d4 <__alt_mem_Onchip_SRAM+0xf80022d4>
    2948:	843ffc04 	addi	r16,r16,-16
    294c:	d8c02017 	ldw	r3,128(sp)
    2950:	d8801f17 	ldw	r2,124(sp)
    2954:	da000404 	addi	r8,sp,16
    2958:	8c3fed16 	blt	r17,r16,2910 <__alt_mem_Onchip_SRAM+0xf8002910>
    295c:	d9403517 	ldw	r5,212(sp)
    2960:	1c07883a 	add	r3,r3,r16
    2964:	10800044 	addi	r2,r2,1
    2968:	41400015 	stw	r5,0(r8)
    296c:	44000115 	stw	r16,4(r8)
    2970:	d8c02015 	stw	r3,128(sp)
    2974:	d8801f15 	stw	r2,124(sp)
    2978:	010001c4 	movi	r4,7
    297c:	2080060e 	bge	r4,r2,2998 <___svfprintf_internal_r+0xa60>
    2980:	d9402d17 	ldw	r5,180(sp)
    2984:	d9801e04 	addi	r6,sp,120
    2988:	9809883a 	mov	r4,r19
    298c:	000ff600 	call	ff60 <__ssprint_r>
    2990:	103e501e 	bne	r2,zero,22d4 <__alt_mem_Onchip_SRAM+0xf80022d4>
    2994:	d8c02017 	ldw	r3,128(sp)
    2998:	d8803117 	ldw	r2,196(sp)
    299c:	d9002917 	ldw	r4,164(sp)
    29a0:	1100010e 	bge	r2,r4,29a8 <___svfprintf_internal_r+0xa70>
    29a4:	2005883a 	mov	r2,r4
    29a8:	d9402f17 	ldw	r5,188(sp)
    29ac:	288b883a 	add	r5,r5,r2
    29b0:	d9402f15 	stw	r5,188(sp)
    29b4:	1801be1e 	bne	r3,zero,30b0 <___svfprintf_internal_r+0x1178>
    29b8:	b8800007 	ldb	r2,0(r23)
    29bc:	d8001f15 	stw	zero,124(sp)
    29c0:	da000404 	addi	r8,sp,16
    29c4:	103d891e 	bne	r2,zero,1fec <__alt_mem_Onchip_SRAM+0xf8001fec>
    29c8:	b823883a 	mov	r17,r23
    29cc:	003d9f06 	br	204c <__alt_mem_Onchip_SRAM+0xf800204c>
    29d0:	8025883a 	mov	r18,r16
    29d4:	dc002903 	ldbu	r16,164(sp)
    29d8:	e011883a 	mov	r8,fp
    29dc:	84003fcc 	andi	r16,r16,255
    29e0:	8005e61e 	bne	r16,zero,417c <___svfprintf_internal_r+0x2244>
    29e4:	94800414 	ori	r18,r18,16
    29e8:	9080080c 	andi	r2,r18,32
    29ec:	10022026 	beq	r2,zero,3270 <___svfprintf_internal_r+0x1338>
    29f0:	d9002e17 	ldw	r4,184(sp)
    29f4:	d9402a17 	ldw	r5,168(sp)
    29f8:	d8002785 	stb	zero,158(sp)
    29fc:	20c00204 	addi	r3,r4,8
    2a00:	25000017 	ldw	r20,0(r4)
    2a04:	25800117 	ldw	r22,4(r4)
    2a08:	2803ad16 	blt	r5,zero,38c0 <___svfprintf_internal_r+0x1988>
    2a0c:	013fdfc4 	movi	r4,-129
    2a10:	a584b03a 	or	r2,r20,r22
    2a14:	d8c02e15 	stw	r3,184(sp)
    2a18:	9124703a 	and	r18,r18,r4
    2a1c:	0039883a 	mov	fp,zero
    2a20:	103eb01e 	bne	r2,zero,24e4 <__alt_mem_Onchip_SRAM+0xf80024e4>
    2a24:	d8802a17 	ldw	r2,168(sp)
    2a28:	1002e71e 	bne	r2,zero,35c8 <___svfprintf_internal_r+0x1690>
    2a2c:	d8002a15 	stw	zero,168(sp)
    2a30:	d8002b15 	stw	zero,172(sp)
    2a34:	dc001e04 	addi	r16,sp,120
    2a38:	003ef706 	br	2618 <__alt_mem_Onchip_SRAM+0xf8002618>
    2a3c:	8025883a 	mov	r18,r16
    2a40:	dc002903 	ldbu	r16,164(sp)
    2a44:	e011883a 	mov	r8,fp
    2a48:	84003fcc 	andi	r16,r16,255
    2a4c:	8005c81e 	bne	r16,zero,4170 <___svfprintf_internal_r+0x2238>
    2a50:	010000b4 	movhi	r4,2
    2a54:	2133ae04 	addi	r4,r4,-12616
    2a58:	d9003a15 	stw	r4,232(sp)
    2a5c:	9080080c 	andi	r2,r18,32
    2a60:	10007226 	beq	r2,zero,2c2c <___svfprintf_internal_r+0xcf4>
    2a64:	d9402e17 	ldw	r5,184(sp)
    2a68:	2d000017 	ldw	r20,0(r5)
    2a6c:	2d800117 	ldw	r22,4(r5)
    2a70:	29400204 	addi	r5,r5,8
    2a74:	d9402e15 	stw	r5,184(sp)
    2a78:	9080004c 	andi	r2,r18,1
    2a7c:	1001aa26 	beq	r2,zero,3128 <___svfprintf_internal_r+0x11f0>
    2a80:	a584b03a 	or	r2,r20,r22
    2a84:	10032526 	beq	r2,zero,371c <___svfprintf_internal_r+0x17e4>
    2a88:	d8c02a17 	ldw	r3,168(sp)
    2a8c:	00800c04 	movi	r2,48
    2a90:	d8802705 	stb	r2,156(sp)
    2a94:	dc402745 	stb	r17,157(sp)
    2a98:	d8002785 	stb	zero,158(sp)
    2a9c:	90800094 	ori	r2,r18,2
    2aa0:	1804a316 	blt	r3,zero,3d30 <___svfprintf_internal_r+0x1df8>
    2aa4:	00bfdfc4 	movi	r2,-129
    2aa8:	90a4703a 	and	r18,r18,r2
    2aac:	94800094 	ori	r18,r18,2
    2ab0:	0039883a 	mov	fp,zero
    2ab4:	d9003a17 	ldw	r4,232(sp)
    2ab8:	dc001e04 	addi	r16,sp,120
    2abc:	a08003cc 	andi	r2,r20,15
    2ac0:	b006973a 	slli	r3,r22,28
    2ac4:	2085883a 	add	r2,r4,r2
    2ac8:	a028d13a 	srli	r20,r20,4
    2acc:	10800003 	ldbu	r2,0(r2)
    2ad0:	b02cd13a 	srli	r22,r22,4
    2ad4:	843fffc4 	addi	r16,r16,-1
    2ad8:	1d28b03a 	or	r20,r3,r20
    2adc:	80800005 	stb	r2,0(r16)
    2ae0:	a584b03a 	or	r2,r20,r22
    2ae4:	103ff51e 	bne	r2,zero,2abc <__alt_mem_Onchip_SRAM+0xf8002abc>
    2ae8:	d8c02817 	ldw	r3,160(sp)
    2aec:	1c07c83a 	sub	r3,r3,r16
    2af0:	d8c02b15 	stw	r3,172(sp)
    2af4:	003ec806 	br	2618 <__alt_mem_Onchip_SRAM+0xf8002618>
    2af8:	d8c02e17 	ldw	r3,184(sp)
    2afc:	d9002e17 	ldw	r4,184(sp)
    2b00:	8025883a 	mov	r18,r16
    2b04:	18800017 	ldw	r2,0(r3)
    2b08:	21000104 	addi	r4,r4,4
    2b0c:	00c00044 	movi	r3,1
    2b10:	e011883a 	mov	r8,fp
    2b14:	d8c02915 	stw	r3,164(sp)
    2b18:	d8002785 	stb	zero,158(sp)
    2b1c:	d8801405 	stb	r2,80(sp)
    2b20:	d9002e15 	stw	r4,184(sp)
    2b24:	d8c02b15 	stw	r3,172(sp)
    2b28:	d8002a15 	stw	zero,168(sp)
    2b2c:	d8003215 	stw	zero,200(sp)
    2b30:	dc001404 	addi	r16,sp,80
    2b34:	0039883a 	mov	fp,zero
    2b38:	003ec406 	br	264c <__alt_mem_Onchip_SRAM+0xf800264c>
    2b3c:	8025883a 	mov	r18,r16
    2b40:	dc002903 	ldbu	r16,164(sp)
    2b44:	e011883a 	mov	r8,fp
    2b48:	84003fcc 	andi	r16,r16,255
    2b4c:	803e8726 	beq	r16,zero,256c <__alt_mem_Onchip_SRAM+0xf800256c>
    2b50:	d8c02b03 	ldbu	r3,172(sp)
    2b54:	d8c02785 	stb	r3,158(sp)
    2b58:	003e8406 	br	256c <__alt_mem_Onchip_SRAM+0xf800256c>
    2b5c:	00c00044 	movi	r3,1
    2b60:	d8c02905 	stb	r3,164(sp)
    2b64:	00c00ac4 	movi	r3,43
    2b68:	d8c02b05 	stb	r3,172(sp)
    2b6c:	bc400007 	ldb	r17,0(r23)
    2b70:	003d4606 	br	208c <__alt_mem_Onchip_SRAM+0xf800208c>
    2b74:	84000814 	ori	r16,r16,32
    2b78:	bc400007 	ldb	r17,0(r23)
    2b7c:	003d4306 	br	208c <__alt_mem_Onchip_SRAM+0xf800208c>
    2b80:	d8802e17 	ldw	r2,184(sp)
    2b84:	8025883a 	mov	r18,r16
    2b88:	d8002785 	stb	zero,158(sp)
    2b8c:	14000017 	ldw	r16,0(r2)
    2b90:	e011883a 	mov	r8,fp
    2b94:	15000104 	addi	r20,r2,4
    2b98:	80042126 	beq	r16,zero,3c20 <___svfprintf_internal_r+0x1ce8>
    2b9c:	d8c02a17 	ldw	r3,168(sp)
    2ba0:	1803ee16 	blt	r3,zero,3b5c <___svfprintf_internal_r+0x1c24>
    2ba4:	180d883a 	mov	r6,r3
    2ba8:	000b883a 	mov	r5,zero
    2bac:	8009883a 	mov	r4,r16
    2bb0:	df003e15 	stw	fp,248(sp)
    2bb4:	000baf80 	call	baf8 <memchr>
    2bb8:	da003e17 	ldw	r8,248(sp)
    2bbc:	10046a26 	beq	r2,zero,3d68 <___svfprintf_internal_r+0x1e30>
    2bc0:	1405c83a 	sub	r2,r2,r16
    2bc4:	d8802b15 	stw	r2,172(sp)
    2bc8:	1003ea16 	blt	r2,zero,3b74 <___svfprintf_internal_r+0x1c3c>
    2bcc:	df002783 	ldbu	fp,158(sp)
    2bd0:	d8802915 	stw	r2,164(sp)
    2bd4:	dd002e15 	stw	r20,184(sp)
    2bd8:	d8002a15 	stw	zero,168(sp)
    2bdc:	d8003215 	stw	zero,200(sp)
    2be0:	003e9306 	br	2630 <__alt_mem_Onchip_SRAM+0xf8002630>
    2be4:	8025883a 	mov	r18,r16
    2be8:	dc002903 	ldbu	r16,164(sp)
    2bec:	e011883a 	mov	r8,fp
    2bf0:	84003fcc 	andi	r16,r16,255
    2bf4:	803f7c26 	beq	r16,zero,29e8 <__alt_mem_Onchip_SRAM+0xf80029e8>
    2bf8:	d8c02b03 	ldbu	r3,172(sp)
    2bfc:	d8c02785 	stb	r3,158(sp)
    2c00:	003f7906 	br	29e8 <__alt_mem_Onchip_SRAM+0xf80029e8>
    2c04:	8025883a 	mov	r18,r16
    2c08:	dc002903 	ldbu	r16,164(sp)
    2c0c:	e011883a 	mov	r8,fp
    2c10:	84003fcc 	andi	r16,r16,255
    2c14:	8005741e 	bne	r16,zero,41e8 <___svfprintf_internal_r+0x22b0>
    2c18:	010000b4 	movhi	r4,2
    2c1c:	2133b304 	addi	r4,r4,-12596
    2c20:	d9003a15 	stw	r4,232(sp)
    2c24:	9080080c 	andi	r2,r18,32
    2c28:	103f8e1e 	bne	r2,zero,2a64 <__alt_mem_Onchip_SRAM+0xf8002a64>
    2c2c:	9080040c 	andi	r2,r18,16
    2c30:	1002a726 	beq	r2,zero,36d0 <___svfprintf_internal_r+0x1798>
    2c34:	d8802e17 	ldw	r2,184(sp)
    2c38:	002d883a 	mov	r22,zero
    2c3c:	15000017 	ldw	r20,0(r2)
    2c40:	10800104 	addi	r2,r2,4
    2c44:	d8802e15 	stw	r2,184(sp)
    2c48:	003f8b06 	br	2a78 <__alt_mem_Onchip_SRAM+0xf8002a78>
    2c4c:	84000054 	ori	r16,r16,1
    2c50:	bc400007 	ldb	r17,0(r23)
    2c54:	003d0d06 	br	208c <__alt_mem_Onchip_SRAM+0xf800208c>
    2c58:	d8802b07 	ldb	r2,172(sp)
    2c5c:	1002a41e 	bne	r2,zero,36f0 <___svfprintf_internal_r+0x17b8>
    2c60:	00c00044 	movi	r3,1
    2c64:	d8c02905 	stb	r3,164(sp)
    2c68:	00c00804 	movi	r3,32
    2c6c:	d8c02b05 	stb	r3,172(sp)
    2c70:	bc400007 	ldb	r17,0(r23)
    2c74:	003d0506 	br	208c <__alt_mem_Onchip_SRAM+0xf800208c>
    2c78:	8025883a 	mov	r18,r16
    2c7c:	dc002903 	ldbu	r16,164(sp)
    2c80:	e011883a 	mov	r8,fp
    2c84:	84003fcc 	andi	r16,r16,255
    2c88:	803e0626 	beq	r16,zero,24a4 <__alt_mem_Onchip_SRAM+0xf80024a4>
    2c8c:	d8c02b03 	ldbu	r3,172(sp)
    2c90:	d8c02785 	stb	r3,158(sp)
    2c94:	003e0306 	br	24a4 <__alt_mem_Onchip_SRAM+0xf80024a4>
    2c98:	bc400007 	ldb	r17,0(r23)
    2c9c:	00801b04 	movi	r2,108
    2ca0:	88830a26 	beq	r17,r2,38cc <___svfprintf_internal_r+0x1994>
    2ca4:	84000414 	ori	r16,r16,16
    2ca8:	003cf806 	br	208c <__alt_mem_Onchip_SRAM+0xf800208c>
    2cac:	8025883a 	mov	r18,r16
    2cb0:	dc002903 	ldbu	r16,164(sp)
    2cb4:	e011883a 	mov	r8,fp
    2cb8:	84003fcc 	andi	r16,r16,255
    2cbc:	8005471e 	bne	r16,zero,41dc <___svfprintf_internal_r+0x22a4>
    2cc0:	9080080c 	andi	r2,r18,32
    2cc4:	10028c26 	beq	r2,zero,36f8 <___svfprintf_internal_r+0x17c0>
    2cc8:	d9002e17 	ldw	r4,184(sp)
    2ccc:	d9402f17 	ldw	r5,188(sp)
    2cd0:	20800017 	ldw	r2,0(r4)
    2cd4:	2807d7fa 	srai	r3,r5,31
    2cd8:	21000104 	addi	r4,r4,4
    2cdc:	d9002e15 	stw	r4,184(sp)
    2ce0:	11400015 	stw	r5,0(r2)
    2ce4:	10c00115 	stw	r3,4(r2)
    2ce8:	003cbe06 	br	1fe4 <__alt_mem_Onchip_SRAM+0xf8001fe4>
    2cec:	84001014 	ori	r16,r16,64
    2cf0:	bc400007 	ldb	r17,0(r23)
    2cf4:	003ce506 	br	208c <__alt_mem_Onchip_SRAM+0xf800208c>
    2cf8:	010000b4 	movhi	r4,2
    2cfc:	2133b304 	addi	r4,r4,-12596
    2d00:	0039883a 	mov	fp,zero
    2d04:	d9003a15 	stw	r4,232(sp)
    2d08:	04401e04 	movi	r17,120
    2d0c:	003f6906 	br	2ab4 <__alt_mem_Onchip_SRAM+0xf8002ab4>
    2d10:	8025883a 	mov	r18,r16
    2d14:	dc002903 	ldbu	r16,164(sp)
    2d18:	e011883a 	mov	r8,fp
    2d1c:	84003fcc 	andi	r16,r16,255
    2d20:	8005261e 	bne	r16,zero,41bc <___svfprintf_internal_r+0x2284>
    2d24:	883d6526 	beq	r17,zero,22bc <__alt_mem_Onchip_SRAM+0xf80022bc>
    2d28:	00c00044 	movi	r3,1
    2d2c:	d8c02915 	stw	r3,164(sp)
    2d30:	dc401405 	stb	r17,80(sp)
    2d34:	d8002785 	stb	zero,158(sp)
    2d38:	003f7a06 	br	2b24 <__alt_mem_Onchip_SRAM+0xf8002b24>
    2d3c:	010000b4 	movhi	r4,2
    2d40:	2133b304 	addi	r4,r4,-12596
    2d44:	d9003a15 	stw	r4,232(sp)
    2d48:	d8c02e15 	stw	r3,184(sp)
    2d4c:	1025883a 	mov	r18,r2
    2d50:	04401e04 	movi	r17,120
    2d54:	a584b03a 	or	r2,r20,r22
    2d58:	1000fa1e 	bne	r2,zero,3144 <___svfprintf_internal_r+0x120c>
    2d5c:	0039883a 	mov	fp,zero
    2d60:	00800084 	movi	r2,2
    2d64:	10803fcc 	andi	r2,r2,255
    2d68:	00c00044 	movi	r3,1
    2d6c:	10c21626 	beq	r2,r3,35c8 <___svfprintf_internal_r+0x1690>
    2d70:	00c00084 	movi	r3,2
    2d74:	10fe0e1e 	bne	r2,r3,25b0 <__alt_mem_Onchip_SRAM+0xf80025b0>
    2d78:	003d4606 	br	2294 <__alt_mem_Onchip_SRAM+0xf8002294>
    2d7c:	d8c02017 	ldw	r3,128(sp)
    2d80:	003e7306 	br	2750 <__alt_mem_Onchip_SRAM+0xf8002750>
    2d84:	00801944 	movi	r2,101
    2d88:	14407c0e 	bge	r2,r17,2f7c <___svfprintf_internal_r+0x1044>
    2d8c:	d9003617 	ldw	r4,216(sp)
    2d90:	d9403717 	ldw	r5,220(sp)
    2d94:	000d883a 	mov	r6,zero
    2d98:	000f883a 	mov	r7,zero
    2d9c:	d8c03d15 	stw	r3,244(sp)
    2da0:	da003e15 	stw	r8,248(sp)
    2da4:	00165c80 	call	165c8 <__eqdf2>
    2da8:	d8c03d17 	ldw	r3,244(sp)
    2dac:	da003e17 	ldw	r8,248(sp)
    2db0:	1000f51e 	bne	r2,zero,3188 <___svfprintf_internal_r+0x1250>
    2db4:	d8801f17 	ldw	r2,124(sp)
    2db8:	010000b4 	movhi	r4,2
    2dbc:	2133ba04 	addi	r4,r4,-12568
    2dc0:	18c00044 	addi	r3,r3,1
    2dc4:	10800044 	addi	r2,r2,1
    2dc8:	41000015 	stw	r4,0(r8)
    2dcc:	01000044 	movi	r4,1
    2dd0:	41000115 	stw	r4,4(r8)
    2dd4:	d8c02015 	stw	r3,128(sp)
    2dd8:	d8801f15 	stw	r2,124(sp)
    2ddc:	010001c4 	movi	r4,7
    2de0:	20826616 	blt	r4,r2,377c <___svfprintf_internal_r+0x1844>
    2de4:	42000204 	addi	r8,r8,8
    2de8:	d8802617 	ldw	r2,152(sp)
    2dec:	d9403317 	ldw	r5,204(sp)
    2df0:	11400216 	blt	r2,r5,2dfc <___svfprintf_internal_r+0xec4>
    2df4:	9080004c 	andi	r2,r18,1
    2df8:	103eb326 	beq	r2,zero,28c8 <__alt_mem_Onchip_SRAM+0xf80028c8>
    2dfc:	d8803817 	ldw	r2,224(sp)
    2e00:	d9003417 	ldw	r4,208(sp)
    2e04:	d9403817 	ldw	r5,224(sp)
    2e08:	1887883a 	add	r3,r3,r2
    2e0c:	d8801f17 	ldw	r2,124(sp)
    2e10:	41000015 	stw	r4,0(r8)
    2e14:	41400115 	stw	r5,4(r8)
    2e18:	10800044 	addi	r2,r2,1
    2e1c:	d8c02015 	stw	r3,128(sp)
    2e20:	d8801f15 	stw	r2,124(sp)
    2e24:	010001c4 	movi	r4,7
    2e28:	2082af16 	blt	r4,r2,38e8 <___svfprintf_internal_r+0x19b0>
    2e2c:	42000204 	addi	r8,r8,8
    2e30:	d8803317 	ldw	r2,204(sp)
    2e34:	143fffc4 	addi	r16,r2,-1
    2e38:	043ea30e 	bge	zero,r16,28c8 <__alt_mem_Onchip_SRAM+0xf80028c8>
    2e3c:	04400404 	movi	r17,16
    2e40:	d8801f17 	ldw	r2,124(sp)
    2e44:	8c00860e 	bge	r17,r16,3060 <___svfprintf_internal_r+0x1128>
    2e48:	014000b4 	movhi	r5,2
    2e4c:	2973ba84 	addi	r5,r5,-12566
    2e50:	d9402c15 	stw	r5,176(sp)
    2e54:	058001c4 	movi	r22,7
    2e58:	dd002d17 	ldw	r20,180(sp)
    2e5c:	00000306 	br	2e6c <___svfprintf_internal_r+0xf34>
    2e60:	42000204 	addi	r8,r8,8
    2e64:	843ffc04 	addi	r16,r16,-16
    2e68:	8c00800e 	bge	r17,r16,306c <___svfprintf_internal_r+0x1134>
    2e6c:	18c00404 	addi	r3,r3,16
    2e70:	10800044 	addi	r2,r2,1
    2e74:	45400015 	stw	r21,0(r8)
    2e78:	44400115 	stw	r17,4(r8)
    2e7c:	d8c02015 	stw	r3,128(sp)
    2e80:	d8801f15 	stw	r2,124(sp)
    2e84:	b0bff60e 	bge	r22,r2,2e60 <__alt_mem_Onchip_SRAM+0xf8002e60>
    2e88:	d9801e04 	addi	r6,sp,120
    2e8c:	a00b883a 	mov	r5,r20
    2e90:	9809883a 	mov	r4,r19
    2e94:	000ff600 	call	ff60 <__ssprint_r>
    2e98:	103d0e1e 	bne	r2,zero,22d4 <__alt_mem_Onchip_SRAM+0xf80022d4>
    2e9c:	d8c02017 	ldw	r3,128(sp)
    2ea0:	d8801f17 	ldw	r2,124(sp)
    2ea4:	da000404 	addi	r8,sp,16
    2ea8:	003fee06 	br	2e64 <__alt_mem_Onchip_SRAM+0xf8002e64>
    2eac:	d9403117 	ldw	r5,196(sp)
    2eb0:	d8802917 	ldw	r2,164(sp)
    2eb4:	28adc83a 	sub	r22,r5,r2
    2eb8:	05be430e 	bge	zero,r22,27c8 <__alt_mem_Onchip_SRAM+0xf80027c8>
    2ebc:	07000404 	movi	fp,16
    2ec0:	d8801f17 	ldw	r2,124(sp)
    2ec4:	e583a20e 	bge	fp,r22,3d50 <___svfprintf_internal_r+0x1e18>
    2ec8:	014000b4 	movhi	r5,2
    2ecc:	2973ba84 	addi	r5,r5,-12566
    2ed0:	dc403015 	stw	r17,192(sp)
    2ed4:	d9402c15 	stw	r5,176(sp)
    2ed8:	b023883a 	mov	r17,r22
    2edc:	050001c4 	movi	r20,7
    2ee0:	902d883a 	mov	r22,r18
    2ee4:	8025883a 	mov	r18,r16
    2ee8:	dc002d17 	ldw	r16,180(sp)
    2eec:	00000306 	br	2efc <___svfprintf_internal_r+0xfc4>
    2ef0:	8c7ffc04 	addi	r17,r17,-16
    2ef4:	42000204 	addi	r8,r8,8
    2ef8:	e440110e 	bge	fp,r17,2f40 <___svfprintf_internal_r+0x1008>
    2efc:	18c00404 	addi	r3,r3,16
    2f00:	10800044 	addi	r2,r2,1
    2f04:	45400015 	stw	r21,0(r8)
    2f08:	47000115 	stw	fp,4(r8)
    2f0c:	d8c02015 	stw	r3,128(sp)
    2f10:	d8801f15 	stw	r2,124(sp)
    2f14:	a0bff60e 	bge	r20,r2,2ef0 <__alt_mem_Onchip_SRAM+0xf8002ef0>
    2f18:	d9801e04 	addi	r6,sp,120
    2f1c:	800b883a 	mov	r5,r16
    2f20:	9809883a 	mov	r4,r19
    2f24:	000ff600 	call	ff60 <__ssprint_r>
    2f28:	103cea1e 	bne	r2,zero,22d4 <__alt_mem_Onchip_SRAM+0xf80022d4>
    2f2c:	8c7ffc04 	addi	r17,r17,-16
    2f30:	d8c02017 	ldw	r3,128(sp)
    2f34:	d8801f17 	ldw	r2,124(sp)
    2f38:	da000404 	addi	r8,sp,16
    2f3c:	e47fef16 	blt	fp,r17,2efc <__alt_mem_Onchip_SRAM+0xf8002efc>
    2f40:	9021883a 	mov	r16,r18
    2f44:	b025883a 	mov	r18,r22
    2f48:	882d883a 	mov	r22,r17
    2f4c:	dc403017 	ldw	r17,192(sp)
    2f50:	d9002c17 	ldw	r4,176(sp)
    2f54:	1d87883a 	add	r3,r3,r22
    2f58:	10800044 	addi	r2,r2,1
    2f5c:	41000015 	stw	r4,0(r8)
    2f60:	45800115 	stw	r22,4(r8)
    2f64:	d8c02015 	stw	r3,128(sp)
    2f68:	d8801f15 	stw	r2,124(sp)
    2f6c:	010001c4 	movi	r4,7
    2f70:	20819a16 	blt	r4,r2,35dc <___svfprintf_internal_r+0x16a4>
    2f74:	42000204 	addi	r8,r8,8
    2f78:	003e1306 	br	27c8 <__alt_mem_Onchip_SRAM+0xf80027c8>
    2f7c:	d9403317 	ldw	r5,204(sp)
    2f80:	00800044 	movi	r2,1
    2f84:	18c00044 	addi	r3,r3,1
    2f88:	1141710e 	bge	r2,r5,3550 <___svfprintf_internal_r+0x1618>
    2f8c:	dc401f17 	ldw	r17,124(sp)
    2f90:	00800044 	movi	r2,1
    2f94:	40800115 	stw	r2,4(r8)
    2f98:	8c400044 	addi	r17,r17,1
    2f9c:	44000015 	stw	r16,0(r8)
    2fa0:	d8c02015 	stw	r3,128(sp)
    2fa4:	dc401f15 	stw	r17,124(sp)
    2fa8:	008001c4 	movi	r2,7
    2fac:	14417416 	blt	r2,r17,3580 <___svfprintf_internal_r+0x1648>
    2fb0:	42000204 	addi	r8,r8,8
    2fb4:	d8803817 	ldw	r2,224(sp)
    2fb8:	d9003417 	ldw	r4,208(sp)
    2fbc:	8c400044 	addi	r17,r17,1
    2fc0:	10c7883a 	add	r3,r2,r3
    2fc4:	40800115 	stw	r2,4(r8)
    2fc8:	41000015 	stw	r4,0(r8)
    2fcc:	d8c02015 	stw	r3,128(sp)
    2fd0:	dc401f15 	stw	r17,124(sp)
    2fd4:	008001c4 	movi	r2,7
    2fd8:	14417216 	blt	r2,r17,35a4 <___svfprintf_internal_r+0x166c>
    2fdc:	45800204 	addi	r22,r8,8
    2fe0:	d9003617 	ldw	r4,216(sp)
    2fe4:	d9403717 	ldw	r5,220(sp)
    2fe8:	000d883a 	mov	r6,zero
    2fec:	000f883a 	mov	r7,zero
    2ff0:	d8c03d15 	stw	r3,244(sp)
    2ff4:	00165c80 	call	165c8 <__eqdf2>
    2ff8:	d8c03d17 	ldw	r3,244(sp)
    2ffc:	1000b326 	beq	r2,zero,32cc <___svfprintf_internal_r+0x1394>
    3000:	d9403317 	ldw	r5,204(sp)
    3004:	84000044 	addi	r16,r16,1
    3008:	8c400044 	addi	r17,r17,1
    300c:	28bfffc4 	addi	r2,r5,-1
    3010:	1887883a 	add	r3,r3,r2
    3014:	b0800115 	stw	r2,4(r22)
    3018:	b4000015 	stw	r16,0(r22)
    301c:	d8c02015 	stw	r3,128(sp)
    3020:	dc401f15 	stw	r17,124(sp)
    3024:	008001c4 	movi	r2,7
    3028:	1440d216 	blt	r2,r17,3374 <___svfprintf_internal_r+0x143c>
    302c:	b5800204 	addi	r22,r22,8
    3030:	d9003b17 	ldw	r4,236(sp)
    3034:	df0022c4 	addi	fp,sp,139
    3038:	8c400044 	addi	r17,r17,1
    303c:	20c7883a 	add	r3,r4,r3
    3040:	b7000015 	stw	fp,0(r22)
    3044:	b1000115 	stw	r4,4(r22)
    3048:	d8c02015 	stw	r3,128(sp)
    304c:	dc401f15 	stw	r17,124(sp)
    3050:	008001c4 	movi	r2,7
    3054:	14400e16 	blt	r2,r17,3090 <___svfprintf_internal_r+0x1158>
    3058:	b2000204 	addi	r8,r22,8
    305c:	003e1a06 	br	28c8 <__alt_mem_Onchip_SRAM+0xf80028c8>
    3060:	010000b4 	movhi	r4,2
    3064:	2133ba84 	addi	r4,r4,-12566
    3068:	d9002c15 	stw	r4,176(sp)
    306c:	d9002c17 	ldw	r4,176(sp)
    3070:	1c07883a 	add	r3,r3,r16
    3074:	44000115 	stw	r16,4(r8)
    3078:	41000015 	stw	r4,0(r8)
    307c:	10800044 	addi	r2,r2,1
    3080:	d8c02015 	stw	r3,128(sp)
    3084:	d8801f15 	stw	r2,124(sp)
    3088:	010001c4 	movi	r4,7
    308c:	20be0d0e 	bge	r4,r2,28c4 <__alt_mem_Onchip_SRAM+0xf80028c4>
    3090:	d9402d17 	ldw	r5,180(sp)
    3094:	d9801e04 	addi	r6,sp,120
    3098:	9809883a 	mov	r4,r19
    309c:	000ff600 	call	ff60 <__ssprint_r>
    30a0:	103c8c1e 	bne	r2,zero,22d4 <__alt_mem_Onchip_SRAM+0xf80022d4>
    30a4:	d8c02017 	ldw	r3,128(sp)
    30a8:	da000404 	addi	r8,sp,16
    30ac:	003e0606 	br	28c8 <__alt_mem_Onchip_SRAM+0xf80028c8>
    30b0:	d9402d17 	ldw	r5,180(sp)
    30b4:	d9801e04 	addi	r6,sp,120
    30b8:	9809883a 	mov	r4,r19
    30bc:	000ff600 	call	ff60 <__ssprint_r>
    30c0:	103e3d26 	beq	r2,zero,29b8 <__alt_mem_Onchip_SRAM+0xf80029b8>
    30c4:	003c8306 	br	22d4 <__alt_mem_Onchip_SRAM+0xf80022d4>
    30c8:	d9402d17 	ldw	r5,180(sp)
    30cc:	d9801e04 	addi	r6,sp,120
    30d0:	9809883a 	mov	r4,r19
    30d4:	000ff600 	call	ff60 <__ssprint_r>
    30d8:	103c7e1e 	bne	r2,zero,22d4 <__alt_mem_Onchip_SRAM+0xf80022d4>
    30dc:	d8c02017 	ldw	r3,128(sp)
    30e0:	da000404 	addi	r8,sp,16
    30e4:	003deb06 	br	2894 <__alt_mem_Onchip_SRAM+0xf8002894>
    30e8:	d9402d17 	ldw	r5,180(sp)
    30ec:	d9801e04 	addi	r6,sp,120
    30f0:	9809883a 	mov	r4,r19
    30f4:	000ff600 	call	ff60 <__ssprint_r>
    30f8:	103c761e 	bne	r2,zero,22d4 <__alt_mem_Onchip_SRAM+0xf80022d4>
    30fc:	d8c02017 	ldw	r3,128(sp)
    3100:	da000404 	addi	r8,sp,16
    3104:	003d9f06 	br	2784 <__alt_mem_Onchip_SRAM+0xf8002784>
    3108:	d9402d17 	ldw	r5,180(sp)
    310c:	d9801e04 	addi	r6,sp,120
    3110:	9809883a 	mov	r4,r19
    3114:	000ff600 	call	ff60 <__ssprint_r>
    3118:	103c6e1e 	bne	r2,zero,22d4 <__alt_mem_Onchip_SRAM+0xf80022d4>
    311c:	d8c02017 	ldw	r3,128(sp)
    3120:	da000404 	addi	r8,sp,16
    3124:	003da506 	br	27bc <__alt_mem_Onchip_SRAM+0xf80027bc>
    3128:	d9402a17 	ldw	r5,168(sp)
    312c:	d8002785 	stb	zero,158(sp)
    3130:	283f0816 	blt	r5,zero,2d54 <__alt_mem_Onchip_SRAM+0xf8002d54>
    3134:	00ffdfc4 	movi	r3,-129
    3138:	a584b03a 	or	r2,r20,r22
    313c:	90e4703a 	and	r18,r18,r3
    3140:	103c5126 	beq	r2,zero,2288 <__alt_mem_Onchip_SRAM+0xf8002288>
    3144:	0039883a 	mov	fp,zero
    3148:	003e5a06 	br	2ab4 <__alt_mem_Onchip_SRAM+0xf8002ab4>
    314c:	9080040c 	andi	r2,r18,16
    3150:	10013d26 	beq	r2,zero,3648 <___svfprintf_internal_r+0x1710>
    3154:	d8c02e17 	ldw	r3,184(sp)
    3158:	d9002a17 	ldw	r4,168(sp)
    315c:	d8002785 	stb	zero,158(sp)
    3160:	18800104 	addi	r2,r3,4
    3164:	1d000017 	ldw	r20,0(r3)
    3168:	002d883a 	mov	r22,zero
    316c:	20013f16 	blt	r4,zero,366c <___svfprintf_internal_r+0x1734>
    3170:	00ffdfc4 	movi	r3,-129
    3174:	d8802e15 	stw	r2,184(sp)
    3178:	90e4703a 	and	r18,r18,r3
    317c:	a03d0926 	beq	r20,zero,25a4 <__alt_mem_Onchip_SRAM+0xf80025a4>
    3180:	0039883a 	mov	fp,zero
    3184:	003d0c06 	br	25b8 <__alt_mem_Onchip_SRAM+0xf80025b8>
    3188:	dc402617 	ldw	r17,152(sp)
    318c:	0441830e 	bge	zero,r17,379c <___svfprintf_internal_r+0x1864>
    3190:	dc403217 	ldw	r17,200(sp)
    3194:	d8803317 	ldw	r2,204(sp)
    3198:	1440010e 	bge	r2,r17,31a0 <___svfprintf_internal_r+0x1268>
    319c:	1023883a 	mov	r17,r2
    31a0:	04400a0e 	bge	zero,r17,31cc <___svfprintf_internal_r+0x1294>
    31a4:	d8801f17 	ldw	r2,124(sp)
    31a8:	1c47883a 	add	r3,r3,r17
    31ac:	44000015 	stw	r16,0(r8)
    31b0:	10800044 	addi	r2,r2,1
    31b4:	44400115 	stw	r17,4(r8)
    31b8:	d8c02015 	stw	r3,128(sp)
    31bc:	d8801f15 	stw	r2,124(sp)
    31c0:	010001c4 	movi	r4,7
    31c4:	20827516 	blt	r4,r2,3b9c <___svfprintf_internal_r+0x1c64>
    31c8:	42000204 	addi	r8,r8,8
    31cc:	88027b16 	blt	r17,zero,3bbc <___svfprintf_internal_r+0x1c84>
    31d0:	d9003217 	ldw	r4,200(sp)
    31d4:	2463c83a 	sub	r17,r4,r17
    31d8:	0440990e 	bge	zero,r17,3440 <___svfprintf_internal_r+0x1508>
    31dc:	05800404 	movi	r22,16
    31e0:	d8801f17 	ldw	r2,124(sp)
    31e4:	b441530e 	bge	r22,r17,3734 <___svfprintf_internal_r+0x17fc>
    31e8:	010000b4 	movhi	r4,2
    31ec:	2133ba84 	addi	r4,r4,-12566
    31f0:	d9002c15 	stw	r4,176(sp)
    31f4:	070001c4 	movi	fp,7
    31f8:	dd002d17 	ldw	r20,180(sp)
    31fc:	00000306 	br	320c <___svfprintf_internal_r+0x12d4>
    3200:	42000204 	addi	r8,r8,8
    3204:	8c7ffc04 	addi	r17,r17,-16
    3208:	b4414d0e 	bge	r22,r17,3740 <___svfprintf_internal_r+0x1808>
    320c:	18c00404 	addi	r3,r3,16
    3210:	10800044 	addi	r2,r2,1
    3214:	45400015 	stw	r21,0(r8)
    3218:	45800115 	stw	r22,4(r8)
    321c:	d8c02015 	stw	r3,128(sp)
    3220:	d8801f15 	stw	r2,124(sp)
    3224:	e0bff60e 	bge	fp,r2,3200 <__alt_mem_Onchip_SRAM+0xf8003200>
    3228:	d9801e04 	addi	r6,sp,120
    322c:	a00b883a 	mov	r5,r20
    3230:	9809883a 	mov	r4,r19
    3234:	000ff600 	call	ff60 <__ssprint_r>
    3238:	103c261e 	bne	r2,zero,22d4 <__alt_mem_Onchip_SRAM+0xf80022d4>
    323c:	d8c02017 	ldw	r3,128(sp)
    3240:	d8801f17 	ldw	r2,124(sp)
    3244:	da000404 	addi	r8,sp,16
    3248:	003fee06 	br	3204 <__alt_mem_Onchip_SRAM+0xf8003204>
    324c:	d9402d17 	ldw	r5,180(sp)
    3250:	d9801e04 	addi	r6,sp,120
    3254:	9809883a 	mov	r4,r19
    3258:	000ff600 	call	ff60 <__ssprint_r>
    325c:	103c1d1e 	bne	r2,zero,22d4 <__alt_mem_Onchip_SRAM+0xf80022d4>
    3260:	d8c02017 	ldw	r3,128(sp)
    3264:	df002787 	ldb	fp,158(sp)
    3268:	da000404 	addi	r8,sp,16
    326c:	003d3806 	br	2750 <__alt_mem_Onchip_SRAM+0xf8002750>
    3270:	9080040c 	andi	r2,r18,16
    3274:	10005c26 	beq	r2,zero,33e8 <___svfprintf_internal_r+0x14b0>
    3278:	d8c02e17 	ldw	r3,184(sp)
    327c:	d9002a17 	ldw	r4,168(sp)
    3280:	d8002785 	stb	zero,158(sp)
    3284:	18800104 	addi	r2,r3,4
    3288:	1d000017 	ldw	r20,0(r3)
    328c:	002d883a 	mov	r22,zero
    3290:	20005e16 	blt	r4,zero,340c <___svfprintf_internal_r+0x14d4>
    3294:	00ffdfc4 	movi	r3,-129
    3298:	d8802e15 	stw	r2,184(sp)
    329c:	90e4703a 	and	r18,r18,r3
    32a0:	0039883a 	mov	fp,zero
    32a4:	a03ddf26 	beq	r20,zero,2a24 <__alt_mem_Onchip_SRAM+0xf8002a24>
    32a8:	00800244 	movi	r2,9
    32ac:	153c8e36 	bltu	r2,r20,24e8 <__alt_mem_Onchip_SRAM+0xf80024e8>
    32b0:	a5000c04 	addi	r20,r20,48
    32b4:	dc001dc4 	addi	r16,sp,119
    32b8:	dd001dc5 	stb	r20,119(sp)
    32bc:	d8c02817 	ldw	r3,160(sp)
    32c0:	1c07c83a 	sub	r3,r3,r16
    32c4:	d8c02b15 	stw	r3,172(sp)
    32c8:	003cd306 	br	2618 <__alt_mem_Onchip_SRAM+0xf8002618>
    32cc:	d8803317 	ldw	r2,204(sp)
    32d0:	143fffc4 	addi	r16,r2,-1
    32d4:	043f560e 	bge	zero,r16,3030 <__alt_mem_Onchip_SRAM+0xf8003030>
    32d8:	07000404 	movi	fp,16
    32dc:	e403530e 	bge	fp,r16,402c <___svfprintf_internal_r+0x20f4>
    32e0:	014000b4 	movhi	r5,2
    32e4:	2973ba84 	addi	r5,r5,-12566
    32e8:	d9402c15 	stw	r5,176(sp)
    32ec:	01c001c4 	movi	r7,7
    32f0:	dd002d17 	ldw	r20,180(sp)
    32f4:	00000306 	br	3304 <___svfprintf_internal_r+0x13cc>
    32f8:	843ffc04 	addi	r16,r16,-16
    32fc:	b5800204 	addi	r22,r22,8
    3300:	e400130e 	bge	fp,r16,3350 <___svfprintf_internal_r+0x1418>
    3304:	18c00404 	addi	r3,r3,16
    3308:	8c400044 	addi	r17,r17,1
    330c:	b5400015 	stw	r21,0(r22)
    3310:	b7000115 	stw	fp,4(r22)
    3314:	d8c02015 	stw	r3,128(sp)
    3318:	dc401f15 	stw	r17,124(sp)
    331c:	3c7ff60e 	bge	r7,r17,32f8 <__alt_mem_Onchip_SRAM+0xf80032f8>
    3320:	d9801e04 	addi	r6,sp,120
    3324:	a00b883a 	mov	r5,r20
    3328:	9809883a 	mov	r4,r19
    332c:	d9c03d15 	stw	r7,244(sp)
    3330:	000ff600 	call	ff60 <__ssprint_r>
    3334:	d9c03d17 	ldw	r7,244(sp)
    3338:	103be61e 	bne	r2,zero,22d4 <__alt_mem_Onchip_SRAM+0xf80022d4>
    333c:	843ffc04 	addi	r16,r16,-16
    3340:	d8c02017 	ldw	r3,128(sp)
    3344:	dc401f17 	ldw	r17,124(sp)
    3348:	dd800404 	addi	r22,sp,16
    334c:	e43fed16 	blt	fp,r16,3304 <__alt_mem_Onchip_SRAM+0xf8003304>
    3350:	d8802c17 	ldw	r2,176(sp)
    3354:	1c07883a 	add	r3,r3,r16
    3358:	8c400044 	addi	r17,r17,1
    335c:	b0800015 	stw	r2,0(r22)
    3360:	b4000115 	stw	r16,4(r22)
    3364:	d8c02015 	stw	r3,128(sp)
    3368:	dc401f15 	stw	r17,124(sp)
    336c:	008001c4 	movi	r2,7
    3370:	147f2e0e 	bge	r2,r17,302c <__alt_mem_Onchip_SRAM+0xf800302c>
    3374:	d9402d17 	ldw	r5,180(sp)
    3378:	d9801e04 	addi	r6,sp,120
    337c:	9809883a 	mov	r4,r19
    3380:	000ff600 	call	ff60 <__ssprint_r>
    3384:	103bd31e 	bne	r2,zero,22d4 <__alt_mem_Onchip_SRAM+0xf80022d4>
    3388:	d8c02017 	ldw	r3,128(sp)
    338c:	dc401f17 	ldw	r17,124(sp)
    3390:	dd800404 	addi	r22,sp,16
    3394:	003f2606 	br	3030 <__alt_mem_Onchip_SRAM+0xf8003030>
    3398:	9080040c 	andi	r2,r18,16
    339c:	1000c326 	beq	r2,zero,36ac <___svfprintf_internal_r+0x1774>
    33a0:	d9402e17 	ldw	r5,184(sp)
    33a4:	2d000017 	ldw	r20,0(r5)
    33a8:	29400104 	addi	r5,r5,4
    33ac:	d9402e15 	stw	r5,184(sp)
    33b0:	a02dd7fa 	srai	r22,r20,31
    33b4:	b005883a 	mov	r2,r22
    33b8:	103c430e 	bge	r2,zero,24c8 <__alt_mem_Onchip_SRAM+0xf80024c8>
    33bc:	d9402a17 	ldw	r5,168(sp)
    33c0:	0529c83a 	sub	r20,zero,r20
    33c4:	07000b44 	movi	fp,45
    33c8:	a004c03a 	cmpne	r2,r20,zero
    33cc:	05adc83a 	sub	r22,zero,r22
    33d0:	df002785 	stb	fp,158(sp)
    33d4:	b0adc83a 	sub	r22,r22,r2
    33d8:	28022e16 	blt	r5,zero,3c94 <___svfprintf_internal_r+0x1d5c>
    33dc:	00bfdfc4 	movi	r2,-129
    33e0:	90a4703a 	and	r18,r18,r2
    33e4:	003c3f06 	br	24e4 <__alt_mem_Onchip_SRAM+0xf80024e4>
    33e8:	9080100c 	andi	r2,r18,64
    33ec:	d8002785 	stb	zero,158(sp)
    33f0:	10012526 	beq	r2,zero,3888 <___svfprintf_internal_r+0x1950>
    33f4:	d9402e17 	ldw	r5,184(sp)
    33f8:	d8c02a17 	ldw	r3,168(sp)
    33fc:	002d883a 	mov	r22,zero
    3400:	28800104 	addi	r2,r5,4
    3404:	2d00000b 	ldhu	r20,0(r5)
    3408:	183fa20e 	bge	r3,zero,3294 <__alt_mem_Onchip_SRAM+0xf8003294>
    340c:	d8802e15 	stw	r2,184(sp)
    3410:	0039883a 	mov	fp,zero
    3414:	a584b03a 	or	r2,r20,r22
    3418:	103c321e 	bne	r2,zero,24e4 <__alt_mem_Onchip_SRAM+0xf80024e4>
    341c:	00800044 	movi	r2,1
    3420:	003e5006 	br	2d64 <__alt_mem_Onchip_SRAM+0xf8002d64>
    3424:	d9402d17 	ldw	r5,180(sp)
    3428:	d9801e04 	addi	r6,sp,120
    342c:	9809883a 	mov	r4,r19
    3430:	000ff600 	call	ff60 <__ssprint_r>
    3434:	103ba71e 	bne	r2,zero,22d4 <__alt_mem_Onchip_SRAM+0xf80022d4>
    3438:	d8c02017 	ldw	r3,128(sp)
    343c:	da000404 	addi	r8,sp,16
    3440:	d9003217 	ldw	r4,200(sp)
    3444:	d8802617 	ldw	r2,152(sp)
    3448:	d9403317 	ldw	r5,204(sp)
    344c:	8123883a 	add	r17,r16,r4
    3450:	11400216 	blt	r2,r5,345c <___svfprintf_internal_r+0x1524>
    3454:	9100004c 	andi	r4,r18,1
    3458:	20000d26 	beq	r4,zero,3490 <___svfprintf_internal_r+0x1558>
    345c:	d9003817 	ldw	r4,224(sp)
    3460:	d9403417 	ldw	r5,208(sp)
    3464:	1907883a 	add	r3,r3,r4
    3468:	d9001f17 	ldw	r4,124(sp)
    346c:	41400015 	stw	r5,0(r8)
    3470:	d9403817 	ldw	r5,224(sp)
    3474:	21000044 	addi	r4,r4,1
    3478:	d8c02015 	stw	r3,128(sp)
    347c:	41400115 	stw	r5,4(r8)
    3480:	d9001f15 	stw	r4,124(sp)
    3484:	014001c4 	movi	r5,7
    3488:	2901dc16 	blt	r5,r4,3bfc <___svfprintf_internal_r+0x1cc4>
    348c:	42000204 	addi	r8,r8,8
    3490:	d9003317 	ldw	r4,204(sp)
    3494:	8121883a 	add	r16,r16,r4
    3498:	2085c83a 	sub	r2,r4,r2
    349c:	8461c83a 	sub	r16,r16,r17
    34a0:	1400010e 	bge	r2,r16,34a8 <___svfprintf_internal_r+0x1570>
    34a4:	1021883a 	mov	r16,r2
    34a8:	04000a0e 	bge	zero,r16,34d4 <___svfprintf_internal_r+0x159c>
    34ac:	d9001f17 	ldw	r4,124(sp)
    34b0:	1c07883a 	add	r3,r3,r16
    34b4:	44400015 	stw	r17,0(r8)
    34b8:	21000044 	addi	r4,r4,1
    34bc:	44000115 	stw	r16,4(r8)
    34c0:	d8c02015 	stw	r3,128(sp)
    34c4:	d9001f15 	stw	r4,124(sp)
    34c8:	014001c4 	movi	r5,7
    34cc:	2901e616 	blt	r5,r4,3c68 <___svfprintf_internal_r+0x1d30>
    34d0:	42000204 	addi	r8,r8,8
    34d4:	8001f616 	blt	r16,zero,3cb0 <___svfprintf_internal_r+0x1d78>
    34d8:	1421c83a 	sub	r16,r2,r16
    34dc:	043cfa0e 	bge	zero,r16,28c8 <__alt_mem_Onchip_SRAM+0xf80028c8>
    34e0:	04400404 	movi	r17,16
    34e4:	d8801f17 	ldw	r2,124(sp)
    34e8:	8c3edd0e 	bge	r17,r16,3060 <__alt_mem_Onchip_SRAM+0xf8003060>
    34ec:	014000b4 	movhi	r5,2
    34f0:	2973ba84 	addi	r5,r5,-12566
    34f4:	d9402c15 	stw	r5,176(sp)
    34f8:	058001c4 	movi	r22,7
    34fc:	dd002d17 	ldw	r20,180(sp)
    3500:	00000306 	br	3510 <___svfprintf_internal_r+0x15d8>
    3504:	42000204 	addi	r8,r8,8
    3508:	843ffc04 	addi	r16,r16,-16
    350c:	8c3ed70e 	bge	r17,r16,306c <__alt_mem_Onchip_SRAM+0xf800306c>
    3510:	18c00404 	addi	r3,r3,16
    3514:	10800044 	addi	r2,r2,1
    3518:	45400015 	stw	r21,0(r8)
    351c:	44400115 	stw	r17,4(r8)
    3520:	d8c02015 	stw	r3,128(sp)
    3524:	d8801f15 	stw	r2,124(sp)
    3528:	b0bff60e 	bge	r22,r2,3504 <__alt_mem_Onchip_SRAM+0xf8003504>
    352c:	d9801e04 	addi	r6,sp,120
    3530:	a00b883a 	mov	r5,r20
    3534:	9809883a 	mov	r4,r19
    3538:	000ff600 	call	ff60 <__ssprint_r>
    353c:	103b651e 	bne	r2,zero,22d4 <__alt_mem_Onchip_SRAM+0xf80022d4>
    3540:	d8c02017 	ldw	r3,128(sp)
    3544:	d8801f17 	ldw	r2,124(sp)
    3548:	da000404 	addi	r8,sp,16
    354c:	003fee06 	br	3508 <__alt_mem_Onchip_SRAM+0xf8003508>
    3550:	9088703a 	and	r4,r18,r2
    3554:	203e8d1e 	bne	r4,zero,2f8c <__alt_mem_Onchip_SRAM+0xf8002f8c>
    3558:	dc401f17 	ldw	r17,124(sp)
    355c:	40800115 	stw	r2,4(r8)
    3560:	44000015 	stw	r16,0(r8)
    3564:	8c400044 	addi	r17,r17,1
    3568:	d8c02015 	stw	r3,128(sp)
    356c:	dc401f15 	stw	r17,124(sp)
    3570:	008001c4 	movi	r2,7
    3574:	147f7f16 	blt	r2,r17,3374 <__alt_mem_Onchip_SRAM+0xf8003374>
    3578:	45800204 	addi	r22,r8,8
    357c:	003eac06 	br	3030 <__alt_mem_Onchip_SRAM+0xf8003030>
    3580:	d9402d17 	ldw	r5,180(sp)
    3584:	d9801e04 	addi	r6,sp,120
    3588:	9809883a 	mov	r4,r19
    358c:	000ff600 	call	ff60 <__ssprint_r>
    3590:	103b501e 	bne	r2,zero,22d4 <__alt_mem_Onchip_SRAM+0xf80022d4>
    3594:	d8c02017 	ldw	r3,128(sp)
    3598:	dc401f17 	ldw	r17,124(sp)
    359c:	da000404 	addi	r8,sp,16
    35a0:	003e8406 	br	2fb4 <__alt_mem_Onchip_SRAM+0xf8002fb4>
    35a4:	d9402d17 	ldw	r5,180(sp)
    35a8:	d9801e04 	addi	r6,sp,120
    35ac:	9809883a 	mov	r4,r19
    35b0:	000ff600 	call	ff60 <__ssprint_r>
    35b4:	103b471e 	bne	r2,zero,22d4 <__alt_mem_Onchip_SRAM+0xf80022d4>
    35b8:	d8c02017 	ldw	r3,128(sp)
    35bc:	dc401f17 	ldw	r17,124(sp)
    35c0:	dd800404 	addi	r22,sp,16
    35c4:	003e8606 	br	2fe0 <__alt_mem_Onchip_SRAM+0xf8002fe0>
    35c8:	0029883a 	mov	r20,zero
    35cc:	a5000c04 	addi	r20,r20,48
    35d0:	dc001dc4 	addi	r16,sp,119
    35d4:	dd001dc5 	stb	r20,119(sp)
    35d8:	003f3806 	br	32bc <__alt_mem_Onchip_SRAM+0xf80032bc>
    35dc:	d9402d17 	ldw	r5,180(sp)
    35e0:	d9801e04 	addi	r6,sp,120
    35e4:	9809883a 	mov	r4,r19
    35e8:	000ff600 	call	ff60 <__ssprint_r>
    35ec:	103b391e 	bne	r2,zero,22d4 <__alt_mem_Onchip_SRAM+0xf80022d4>
    35f0:	d8c02017 	ldw	r3,128(sp)
    35f4:	da000404 	addi	r8,sp,16
    35f8:	003c7306 	br	27c8 <__alt_mem_Onchip_SRAM+0xf80027c8>
    35fc:	d9003617 	ldw	r4,216(sp)
    3600:	d9403717 	ldw	r5,220(sp)
    3604:	da003e15 	stw	r8,248(sp)
    3608:	000d91c0 	call	d91c <__fpclassifyd>
    360c:	da003e17 	ldw	r8,248(sp)
    3610:	1000bd1e 	bne	r2,zero,3908 <___svfprintf_internal_r+0x19d0>
    3614:	008011c4 	movi	r2,71
    3618:	14411e0e 	bge	r2,r17,3a94 <___svfprintf_internal_r+0x1b5c>
    361c:	040000b4 	movhi	r16,2
    3620:	8433ad04 	addi	r16,r16,-12620
    3624:	00c000c4 	movi	r3,3
    3628:	00bfdfc4 	movi	r2,-129
    362c:	d8c02915 	stw	r3,164(sp)
    3630:	90a4703a 	and	r18,r18,r2
    3634:	df002783 	ldbu	fp,158(sp)
    3638:	d8c02b15 	stw	r3,172(sp)
    363c:	d8002a15 	stw	zero,168(sp)
    3640:	d8003215 	stw	zero,200(sp)
    3644:	003bfa06 	br	2630 <__alt_mem_Onchip_SRAM+0xf8002630>
    3648:	9080100c 	andi	r2,r18,64
    364c:	d8002785 	stb	zero,158(sp)
    3650:	10009426 	beq	r2,zero,38a4 <___svfprintf_internal_r+0x196c>
    3654:	d9402e17 	ldw	r5,184(sp)
    3658:	d8c02a17 	ldw	r3,168(sp)
    365c:	002d883a 	mov	r22,zero
    3660:	28800104 	addi	r2,r5,4
    3664:	2d00000b 	ldhu	r20,0(r5)
    3668:	183ec10e 	bge	r3,zero,3170 <__alt_mem_Onchip_SRAM+0xf8003170>
    366c:	a586b03a 	or	r3,r20,r22
    3670:	d8802e15 	stw	r2,184(sp)
    3674:	183ec21e 	bne	r3,zero,3180 <__alt_mem_Onchip_SRAM+0xf8003180>
    3678:	0039883a 	mov	fp,zero
    367c:	0005883a 	mov	r2,zero
    3680:	003db806 	br	2d64 <__alt_mem_Onchip_SRAM+0xf8002d64>
    3684:	d8c02e17 	ldw	r3,184(sp)
    3688:	d9002e17 	ldw	r4,184(sp)
    368c:	d9402e17 	ldw	r5,184(sp)
    3690:	18c00017 	ldw	r3,0(r3)
    3694:	21000117 	ldw	r4,4(r4)
    3698:	29400204 	addi	r5,r5,8
    369c:	d8c03615 	stw	r3,216(sp)
    36a0:	d9003715 	stw	r4,220(sp)
    36a4:	d9402e15 	stw	r5,184(sp)
    36a8:	003b5a06 	br	2414 <__alt_mem_Onchip_SRAM+0xf8002414>
    36ac:	9080100c 	andi	r2,r18,64
    36b0:	10010726 	beq	r2,zero,3ad0 <___svfprintf_internal_r+0x1b98>
    36b4:	d8802e17 	ldw	r2,184(sp)
    36b8:	1500000f 	ldh	r20,0(r2)
    36bc:	10800104 	addi	r2,r2,4
    36c0:	d8802e15 	stw	r2,184(sp)
    36c4:	a02dd7fa 	srai	r22,r20,31
    36c8:	b005883a 	mov	r2,r22
    36cc:	003b7d06 	br	24c4 <__alt_mem_Onchip_SRAM+0xf80024c4>
    36d0:	9080100c 	andi	r2,r18,64
    36d4:	10010526 	beq	r2,zero,3aec <___svfprintf_internal_r+0x1bb4>
    36d8:	d8c02e17 	ldw	r3,184(sp)
    36dc:	002d883a 	mov	r22,zero
    36e0:	1d00000b 	ldhu	r20,0(r3)
    36e4:	18c00104 	addi	r3,r3,4
    36e8:	d8c02e15 	stw	r3,184(sp)
    36ec:	003ce206 	br	2a78 <__alt_mem_Onchip_SRAM+0xf8002a78>
    36f0:	bc400007 	ldb	r17,0(r23)
    36f4:	003a6506 	br	208c <__alt_mem_Onchip_SRAM+0xf800208c>
    36f8:	9080040c 	andi	r2,r18,16
    36fc:	10010126 	beq	r2,zero,3b04 <___svfprintf_internal_r+0x1bcc>
    3700:	d8c02e17 	ldw	r3,184(sp)
    3704:	d9002f17 	ldw	r4,188(sp)
    3708:	18800017 	ldw	r2,0(r3)
    370c:	18c00104 	addi	r3,r3,4
    3710:	d8c02e15 	stw	r3,184(sp)
    3714:	11000015 	stw	r4,0(r2)
    3718:	003a3206 	br	1fe4 <__alt_mem_Onchip_SRAM+0xf8001fe4>
    371c:	d9002a17 	ldw	r4,168(sp)
    3720:	d8002785 	stb	zero,158(sp)
    3724:	203d8d16 	blt	r4,zero,2d5c <__alt_mem_Onchip_SRAM+0xf8002d5c>
    3728:	00bfdfc4 	movi	r2,-129
    372c:	90a4703a 	and	r18,r18,r2
    3730:	003ad506 	br	2288 <__alt_mem_Onchip_SRAM+0xf8002288>
    3734:	014000b4 	movhi	r5,2
    3738:	2973ba84 	addi	r5,r5,-12566
    373c:	d9402c15 	stw	r5,176(sp)
    3740:	d9402c17 	ldw	r5,176(sp)
    3744:	1c47883a 	add	r3,r3,r17
    3748:	10800044 	addi	r2,r2,1
    374c:	41400015 	stw	r5,0(r8)
    3750:	44400115 	stw	r17,4(r8)
    3754:	d8c02015 	stw	r3,128(sp)
    3758:	d8801f15 	stw	r2,124(sp)
    375c:	010001c4 	movi	r4,7
    3760:	20bf3016 	blt	r4,r2,3424 <__alt_mem_Onchip_SRAM+0xf8003424>
    3764:	42000204 	addi	r8,r8,8
    3768:	003f3506 	br	3440 <__alt_mem_Onchip_SRAM+0xf8003440>
    376c:	010000b4 	movhi	r4,2
    3770:	2133ba84 	addi	r4,r4,-12566
    3774:	d9002c15 	stw	r4,176(sp)
    3778:	003c3c06 	br	286c <__alt_mem_Onchip_SRAM+0xf800286c>
    377c:	d9402d17 	ldw	r5,180(sp)
    3780:	d9801e04 	addi	r6,sp,120
    3784:	9809883a 	mov	r4,r19
    3788:	000ff600 	call	ff60 <__ssprint_r>
    378c:	103ad11e 	bne	r2,zero,22d4 <__alt_mem_Onchip_SRAM+0xf80022d4>
    3790:	d8c02017 	ldw	r3,128(sp)
    3794:	da000404 	addi	r8,sp,16
    3798:	003d9306 	br	2de8 <__alt_mem_Onchip_SRAM+0xf8002de8>
    379c:	d8801f17 	ldw	r2,124(sp)
    37a0:	014000b4 	movhi	r5,2
    37a4:	01000044 	movi	r4,1
    37a8:	18c00044 	addi	r3,r3,1
    37ac:	10800044 	addi	r2,r2,1
    37b0:	2973ba04 	addi	r5,r5,-12568
    37b4:	41000115 	stw	r4,4(r8)
    37b8:	41400015 	stw	r5,0(r8)
    37bc:	d8c02015 	stw	r3,128(sp)
    37c0:	d8801f15 	stw	r2,124(sp)
    37c4:	010001c4 	movi	r4,7
    37c8:	2080b516 	blt	r4,r2,3aa0 <___svfprintf_internal_r+0x1b68>
    37cc:	42000204 	addi	r8,r8,8
    37d0:	8800041e 	bne	r17,zero,37e4 <___svfprintf_internal_r+0x18ac>
    37d4:	d8803317 	ldw	r2,204(sp)
    37d8:	1000021e 	bne	r2,zero,37e4 <___svfprintf_internal_r+0x18ac>
    37dc:	9080004c 	andi	r2,r18,1
    37e0:	103c3926 	beq	r2,zero,28c8 <__alt_mem_Onchip_SRAM+0xf80028c8>
    37e4:	d9003817 	ldw	r4,224(sp)
    37e8:	d8801f17 	ldw	r2,124(sp)
    37ec:	d9403417 	ldw	r5,208(sp)
    37f0:	20c7883a 	add	r3,r4,r3
    37f4:	10800044 	addi	r2,r2,1
    37f8:	41000115 	stw	r4,4(r8)
    37fc:	41400015 	stw	r5,0(r8)
    3800:	d8c02015 	stw	r3,128(sp)
    3804:	d8801f15 	stw	r2,124(sp)
    3808:	010001c4 	movi	r4,7
    380c:	20818016 	blt	r4,r2,3e10 <___svfprintf_internal_r+0x1ed8>
    3810:	42000204 	addi	r8,r8,8
    3814:	0463c83a 	sub	r17,zero,r17
    3818:	0440cb0e 	bge	zero,r17,3b48 <___svfprintf_internal_r+0x1c10>
    381c:	05800404 	movi	r22,16
    3820:	b440e80e 	bge	r22,r17,3bc4 <___svfprintf_internal_r+0x1c8c>
    3824:	014000b4 	movhi	r5,2
    3828:	2973ba84 	addi	r5,r5,-12566
    382c:	d9402c15 	stw	r5,176(sp)
    3830:	070001c4 	movi	fp,7
    3834:	dd002d17 	ldw	r20,180(sp)
    3838:	00000306 	br	3848 <___svfprintf_internal_r+0x1910>
    383c:	42000204 	addi	r8,r8,8
    3840:	8c7ffc04 	addi	r17,r17,-16
    3844:	b440e20e 	bge	r22,r17,3bd0 <___svfprintf_internal_r+0x1c98>
    3848:	18c00404 	addi	r3,r3,16
    384c:	10800044 	addi	r2,r2,1
    3850:	45400015 	stw	r21,0(r8)
    3854:	45800115 	stw	r22,4(r8)
    3858:	d8c02015 	stw	r3,128(sp)
    385c:	d8801f15 	stw	r2,124(sp)
    3860:	e0bff60e 	bge	fp,r2,383c <__alt_mem_Onchip_SRAM+0xf800383c>
    3864:	d9801e04 	addi	r6,sp,120
    3868:	a00b883a 	mov	r5,r20
    386c:	9809883a 	mov	r4,r19
    3870:	000ff600 	call	ff60 <__ssprint_r>
    3874:	103a971e 	bne	r2,zero,22d4 <__alt_mem_Onchip_SRAM+0xf80022d4>
    3878:	d8c02017 	ldw	r3,128(sp)
    387c:	d8801f17 	ldw	r2,124(sp)
    3880:	da000404 	addi	r8,sp,16
    3884:	003fee06 	br	3840 <__alt_mem_Onchip_SRAM+0xf8003840>
    3888:	d9002e17 	ldw	r4,184(sp)
    388c:	d9402a17 	ldw	r5,168(sp)
    3890:	002d883a 	mov	r22,zero
    3894:	20800104 	addi	r2,r4,4
    3898:	25000017 	ldw	r20,0(r4)
    389c:	283e7d0e 	bge	r5,zero,3294 <__alt_mem_Onchip_SRAM+0xf8003294>
    38a0:	003eda06 	br	340c <__alt_mem_Onchip_SRAM+0xf800340c>
    38a4:	d9002e17 	ldw	r4,184(sp)
    38a8:	d9402a17 	ldw	r5,168(sp)
    38ac:	002d883a 	mov	r22,zero
    38b0:	20800104 	addi	r2,r4,4
    38b4:	25000017 	ldw	r20,0(r4)
    38b8:	283e2d0e 	bge	r5,zero,3170 <__alt_mem_Onchip_SRAM+0xf8003170>
    38bc:	003f6b06 	br	366c <__alt_mem_Onchip_SRAM+0xf800366c>
    38c0:	d8c02e15 	stw	r3,184(sp)
    38c4:	0039883a 	mov	fp,zero
    38c8:	003ed206 	br	3414 <__alt_mem_Onchip_SRAM+0xf8003414>
    38cc:	bc400043 	ldbu	r17,1(r23)
    38d0:	84000814 	ori	r16,r16,32
    38d4:	bdc00044 	addi	r23,r23,1
    38d8:	8c403fcc 	andi	r17,r17,255
    38dc:	8c40201c 	xori	r17,r17,128
    38e0:	8c7fe004 	addi	r17,r17,-128
    38e4:	0039e906 	br	208c <__alt_mem_Onchip_SRAM+0xf800208c>
    38e8:	d9402d17 	ldw	r5,180(sp)
    38ec:	d9801e04 	addi	r6,sp,120
    38f0:	9809883a 	mov	r4,r19
    38f4:	000ff600 	call	ff60 <__ssprint_r>
    38f8:	103a761e 	bne	r2,zero,22d4 <__alt_mem_Onchip_SRAM+0xf80022d4>
    38fc:	d8c02017 	ldw	r3,128(sp)
    3900:	da000404 	addi	r8,sp,16
    3904:	003d4a06 	br	2e30 <__alt_mem_Onchip_SRAM+0xf8002e30>
    3908:	d9002a17 	ldw	r4,168(sp)
    390c:	05bff7c4 	movi	r22,-33
    3910:	00bfffc4 	movi	r2,-1
    3914:	8dac703a 	and	r22,r17,r22
    3918:	20806a26 	beq	r4,r2,3ac4 <___svfprintf_internal_r+0x1b8c>
    391c:	008011c4 	movi	r2,71
    3920:	b0813726 	beq	r22,r2,3e00 <___svfprintf_internal_r+0x1ec8>
    3924:	d9003717 	ldw	r4,220(sp)
    3928:	90c04014 	ori	r3,r18,256
    392c:	d8c02c15 	stw	r3,176(sp)
    3930:	20015d16 	blt	r4,zero,3ea8 <___svfprintf_internal_r+0x1f70>
    3934:	dd003717 	ldw	r20,220(sp)
    3938:	d8002905 	stb	zero,164(sp)
    393c:	00801984 	movi	r2,102
    3940:	88814026 	beq	r17,r2,3e44 <___svfprintf_internal_r+0x1f0c>
    3944:	00801184 	movi	r2,70
    3948:	88817126 	beq	r17,r2,3f10 <___svfprintf_internal_r+0x1fd8>
    394c:	00801144 	movi	r2,69
    3950:	b0816226 	beq	r22,r2,3edc <___svfprintf_internal_r+0x1fa4>
    3954:	d8c02a17 	ldw	r3,168(sp)
    3958:	d8802104 	addi	r2,sp,132
    395c:	d8800315 	stw	r2,12(sp)
    3960:	d9403617 	ldw	r5,216(sp)
    3964:	d8802504 	addi	r2,sp,148
    3968:	d8800215 	stw	r2,8(sp)
    396c:	d8802604 	addi	r2,sp,152
    3970:	d8c00015 	stw	r3,0(sp)
    3974:	d8800115 	stw	r2,4(sp)
    3978:	01c00084 	movi	r7,2
    397c:	a00d883a 	mov	r6,r20
    3980:	9809883a 	mov	r4,r19
    3984:	d8c03d15 	stw	r3,244(sp)
    3988:	da003e15 	stw	r8,248(sp)
    398c:	00083d00 	call	83d0 <_dtoa_r>
    3990:	1021883a 	mov	r16,r2
    3994:	008019c4 	movi	r2,103
    3998:	d8c03d17 	ldw	r3,244(sp)
    399c:	da003e17 	ldw	r8,248(sp)
    39a0:	8880e726 	beq	r17,r2,3d40 <___svfprintf_internal_r+0x1e08>
    39a4:	008011c4 	movi	r2,71
    39a8:	8880d426 	beq	r17,r2,3cfc <___svfprintf_internal_r+0x1dc4>
    39ac:	80f9883a 	add	fp,r16,r3
    39b0:	d9003617 	ldw	r4,216(sp)
    39b4:	000d883a 	mov	r6,zero
    39b8:	000f883a 	mov	r7,zero
    39bc:	a00b883a 	mov	r5,r20
    39c0:	da003e15 	stw	r8,248(sp)
    39c4:	00165c80 	call	165c8 <__eqdf2>
    39c8:	da003e17 	ldw	r8,248(sp)
    39cc:	1000e426 	beq	r2,zero,3d60 <___svfprintf_internal_r+0x1e28>
    39d0:	d8802117 	ldw	r2,132(sp)
    39d4:	1700062e 	bgeu	r2,fp,39f0 <___svfprintf_internal_r+0x1ab8>
    39d8:	01000c04 	movi	r4,48
    39dc:	10c00044 	addi	r3,r2,1
    39e0:	d8c02115 	stw	r3,132(sp)
    39e4:	11000005 	stb	r4,0(r2)
    39e8:	d8802117 	ldw	r2,132(sp)
    39ec:	173ffb36 	bltu	r2,fp,39dc <__alt_mem_Onchip_SRAM+0xf80039dc>
    39f0:	1405c83a 	sub	r2,r2,r16
    39f4:	d8803315 	stw	r2,204(sp)
    39f8:	008011c4 	movi	r2,71
    39fc:	b080c526 	beq	r22,r2,3d14 <___svfprintf_internal_r+0x1ddc>
    3a00:	00801944 	movi	r2,101
    3a04:	1441d80e 	bge	r2,r17,4168 <___svfprintf_internal_r+0x2230>
    3a08:	d8c02617 	ldw	r3,152(sp)
    3a0c:	00801984 	movi	r2,102
    3a10:	d8c03215 	stw	r3,200(sp)
    3a14:	88813426 	beq	r17,r2,3ee8 <___svfprintf_internal_r+0x1fb0>
    3a18:	d8c03217 	ldw	r3,200(sp)
    3a1c:	d9003317 	ldw	r4,204(sp)
    3a20:	19012516 	blt	r3,r4,3eb8 <___svfprintf_internal_r+0x1f80>
    3a24:	9480004c 	andi	r18,r18,1
    3a28:	9001841e 	bne	r18,zero,403c <___svfprintf_internal_r+0x2104>
    3a2c:	1805883a 	mov	r2,r3
    3a30:	1801cb16 	blt	r3,zero,4160 <___svfprintf_internal_r+0x2228>
    3a34:	d8c03217 	ldw	r3,200(sp)
    3a38:	044019c4 	movi	r17,103
    3a3c:	d8c02b15 	stw	r3,172(sp)
    3a40:	df002907 	ldb	fp,164(sp)
    3a44:	e000a61e 	bne	fp,zero,3ce0 <___svfprintf_internal_r+0x1da8>
    3a48:	df002783 	ldbu	fp,158(sp)
    3a4c:	d8802915 	stw	r2,164(sp)
    3a50:	dc802c17 	ldw	r18,176(sp)
    3a54:	d8002a15 	stw	zero,168(sp)
    3a58:	003af506 	br	2630 <__alt_mem_Onchip_SRAM+0xf8002630>
    3a5c:	040000b4 	movhi	r16,2
    3a60:	8433aa04 	addi	r16,r16,-12632
    3a64:	003a7e06 	br	2460 <__alt_mem_Onchip_SRAM+0xf8002460>
    3a68:	d9003917 	ldw	r4,228(sp)
    3a6c:	04001004 	movi	r16,64
    3a70:	800b883a 	mov	r5,r16
    3a74:	000b0c80 	call	b0c8 <_malloc_r>
    3a78:	d9002d17 	ldw	r4,180(sp)
    3a7c:	20800015 	stw	r2,0(r4)
    3a80:	20800415 	stw	r2,16(r4)
    3a84:	1001d026 	beq	r2,zero,41c8 <___svfprintf_internal_r+0x2290>
    3a88:	d8802d17 	ldw	r2,180(sp)
    3a8c:	14000515 	stw	r16,20(r2)
    3a90:	00394406 	br	1fa4 <__alt_mem_Onchip_SRAM+0xf8001fa4>
    3a94:	040000b4 	movhi	r16,2
    3a98:	8433ac04 	addi	r16,r16,-12624
    3a9c:	003ee106 	br	3624 <__alt_mem_Onchip_SRAM+0xf8003624>
    3aa0:	d9402d17 	ldw	r5,180(sp)
    3aa4:	d9801e04 	addi	r6,sp,120
    3aa8:	9809883a 	mov	r4,r19
    3aac:	000ff600 	call	ff60 <__ssprint_r>
    3ab0:	103a081e 	bne	r2,zero,22d4 <__alt_mem_Onchip_SRAM+0xf80022d4>
    3ab4:	dc402617 	ldw	r17,152(sp)
    3ab8:	d8c02017 	ldw	r3,128(sp)
    3abc:	da000404 	addi	r8,sp,16
    3ac0:	003f4306 	br	37d0 <__alt_mem_Onchip_SRAM+0xf80037d0>
    3ac4:	01400184 	movi	r5,6
    3ac8:	d9402a15 	stw	r5,168(sp)
    3acc:	003f9506 	br	3924 <__alt_mem_Onchip_SRAM+0xf8003924>
    3ad0:	d8c02e17 	ldw	r3,184(sp)
    3ad4:	1d000017 	ldw	r20,0(r3)
    3ad8:	18c00104 	addi	r3,r3,4
    3adc:	d8c02e15 	stw	r3,184(sp)
    3ae0:	a02dd7fa 	srai	r22,r20,31
    3ae4:	b005883a 	mov	r2,r22
    3ae8:	003a7606 	br	24c4 <__alt_mem_Onchip_SRAM+0xf80024c4>
    3aec:	d9002e17 	ldw	r4,184(sp)
    3af0:	002d883a 	mov	r22,zero
    3af4:	25000017 	ldw	r20,0(r4)
    3af8:	21000104 	addi	r4,r4,4
    3afc:	d9002e15 	stw	r4,184(sp)
    3b00:	003bdd06 	br	2a78 <__alt_mem_Onchip_SRAM+0xf8002a78>
    3b04:	9480100c 	andi	r18,r18,64
    3b08:	90006e26 	beq	r18,zero,3cc4 <___svfprintf_internal_r+0x1d8c>
    3b0c:	d9402e17 	ldw	r5,184(sp)
    3b10:	d8c02f17 	ldw	r3,188(sp)
    3b14:	28800017 	ldw	r2,0(r5)
    3b18:	29400104 	addi	r5,r5,4
    3b1c:	d9402e15 	stw	r5,184(sp)
    3b20:	10c0000d 	sth	r3,0(r2)
    3b24:	00392f06 	br	1fe4 <__alt_mem_Onchip_SRAM+0xf8001fe4>
    3b28:	d9402d17 	ldw	r5,180(sp)
    3b2c:	d9801e04 	addi	r6,sp,120
    3b30:	9809883a 	mov	r4,r19
    3b34:	000ff600 	call	ff60 <__ssprint_r>
    3b38:	1039e61e 	bne	r2,zero,22d4 <__alt_mem_Onchip_SRAM+0xf80022d4>
    3b3c:	d8c02017 	ldw	r3,128(sp)
    3b40:	d8801f17 	ldw	r2,124(sp)
    3b44:	da000404 	addi	r8,sp,16
    3b48:	d9403317 	ldw	r5,204(sp)
    3b4c:	10800044 	addi	r2,r2,1
    3b50:	44000015 	stw	r16,0(r8)
    3b54:	28c7883a 	add	r3,r5,r3
    3b58:	003b5506 	br	28b0 <__alt_mem_Onchip_SRAM+0xf80028b0>
    3b5c:	8009883a 	mov	r4,r16
    3b60:	df003e15 	stw	fp,248(sp)
    3b64:	0001ea00 	call	1ea0 <strlen>
    3b68:	d8802b15 	stw	r2,172(sp)
    3b6c:	da003e17 	ldw	r8,248(sp)
    3b70:	103c160e 	bge	r2,zero,2bcc <__alt_mem_Onchip_SRAM+0xf8002bcc>
    3b74:	0005883a 	mov	r2,zero
    3b78:	003c1406 	br	2bcc <__alt_mem_Onchip_SRAM+0xf8002bcc>
    3b7c:	00bfffc4 	movi	r2,-1
    3b80:	0039d906 	br	22e8 <__alt_mem_Onchip_SRAM+0xf80022e8>
    3b84:	010000b4 	movhi	r4,2
    3b88:	2133be84 	addi	r4,r4,-12550
    3b8c:	d9003515 	stw	r4,212(sp)
    3b90:	003ae406 	br	2724 <__alt_mem_Onchip_SRAM+0xf8002724>
    3b94:	013fffc4 	movi	r4,-1
    3b98:	0039fa06 	br	2384 <__alt_mem_Onchip_SRAM+0xf8002384>
    3b9c:	d9402d17 	ldw	r5,180(sp)
    3ba0:	d9801e04 	addi	r6,sp,120
    3ba4:	9809883a 	mov	r4,r19
    3ba8:	000ff600 	call	ff60 <__ssprint_r>
    3bac:	1039c91e 	bne	r2,zero,22d4 <__alt_mem_Onchip_SRAM+0xf80022d4>
    3bb0:	d8c02017 	ldw	r3,128(sp)
    3bb4:	da000404 	addi	r8,sp,16
    3bb8:	003d8406 	br	31cc <__alt_mem_Onchip_SRAM+0xf80031cc>
    3bbc:	0023883a 	mov	r17,zero
    3bc0:	003d8306 	br	31d0 <__alt_mem_Onchip_SRAM+0xf80031d0>
    3bc4:	010000b4 	movhi	r4,2
    3bc8:	2133ba84 	addi	r4,r4,-12566
    3bcc:	d9002c15 	stw	r4,176(sp)
    3bd0:	d9002c17 	ldw	r4,176(sp)
    3bd4:	1c47883a 	add	r3,r3,r17
    3bd8:	10800044 	addi	r2,r2,1
    3bdc:	41000015 	stw	r4,0(r8)
    3be0:	44400115 	stw	r17,4(r8)
    3be4:	d8c02015 	stw	r3,128(sp)
    3be8:	d8801f15 	stw	r2,124(sp)
    3bec:	010001c4 	movi	r4,7
    3bf0:	20bfcd16 	blt	r4,r2,3b28 <__alt_mem_Onchip_SRAM+0xf8003b28>
    3bf4:	42000204 	addi	r8,r8,8
    3bf8:	003fd306 	br	3b48 <__alt_mem_Onchip_SRAM+0xf8003b48>
    3bfc:	d9402d17 	ldw	r5,180(sp)
    3c00:	d9801e04 	addi	r6,sp,120
    3c04:	9809883a 	mov	r4,r19
    3c08:	000ff600 	call	ff60 <__ssprint_r>
    3c0c:	1039b11e 	bne	r2,zero,22d4 <__alt_mem_Onchip_SRAM+0xf80022d4>
    3c10:	d8802617 	ldw	r2,152(sp)
    3c14:	d8c02017 	ldw	r3,128(sp)
    3c18:	da000404 	addi	r8,sp,16
    3c1c:	003e1c06 	br	3490 <__alt_mem_Onchip_SRAM+0xf8003490>
    3c20:	d8802a17 	ldw	r2,168(sp)
    3c24:	00c00184 	movi	r3,6
    3c28:	1880012e 	bgeu	r3,r2,3c30 <___svfprintf_internal_r+0x1cf8>
    3c2c:	1805883a 	mov	r2,r3
    3c30:	d8802b15 	stw	r2,172(sp)
    3c34:	1000f316 	blt	r2,zero,4004 <___svfprintf_internal_r+0x20cc>
    3c38:	040000b4 	movhi	r16,2
    3c3c:	d8802915 	stw	r2,164(sp)
    3c40:	dd002e15 	stw	r20,184(sp)
    3c44:	d8002a15 	stw	zero,168(sp)
    3c48:	d8003215 	stw	zero,200(sp)
    3c4c:	8433b804 	addi	r16,r16,-12576
    3c50:	0039883a 	mov	fp,zero
    3c54:	003a7d06 	br	264c <__alt_mem_Onchip_SRAM+0xf800264c>
    3c58:	010000b4 	movhi	r4,2
    3c5c:	2133be84 	addi	r4,r4,-12550
    3c60:	d9003515 	stw	r4,212(sp)
    3c64:	003b3d06 	br	295c <__alt_mem_Onchip_SRAM+0xf800295c>
    3c68:	d9402d17 	ldw	r5,180(sp)
    3c6c:	d9801e04 	addi	r6,sp,120
    3c70:	9809883a 	mov	r4,r19
    3c74:	000ff600 	call	ff60 <__ssprint_r>
    3c78:	1039961e 	bne	r2,zero,22d4 <__alt_mem_Onchip_SRAM+0xf80022d4>
    3c7c:	d8802617 	ldw	r2,152(sp)
    3c80:	d9403317 	ldw	r5,204(sp)
    3c84:	d8c02017 	ldw	r3,128(sp)
    3c88:	da000404 	addi	r8,sp,16
    3c8c:	2885c83a 	sub	r2,r5,r2
    3c90:	003e1006 	br	34d4 <__alt_mem_Onchip_SRAM+0xf80034d4>
    3c94:	00800044 	movi	r2,1
    3c98:	10803fcc 	andi	r2,r2,255
    3c9c:	00c00044 	movi	r3,1
    3ca0:	10fa1026 	beq	r2,r3,24e4 <__alt_mem_Onchip_SRAM+0xf80024e4>
    3ca4:	00c00084 	movi	r3,2
    3ca8:	10fb8226 	beq	r2,r3,2ab4 <__alt_mem_Onchip_SRAM+0xf8002ab4>
    3cac:	003a4206 	br	25b8 <__alt_mem_Onchip_SRAM+0xf80025b8>
    3cb0:	0021883a 	mov	r16,zero
    3cb4:	003e0806 	br	34d8 <__alt_mem_Onchip_SRAM+0xf80034d8>
    3cb8:	07000b44 	movi	fp,45
    3cbc:	df002785 	stb	fp,158(sp)
    3cc0:	0039e306 	br	2450 <__alt_mem_Onchip_SRAM+0xf8002450>
    3cc4:	d9002e17 	ldw	r4,184(sp)
    3cc8:	d9402f17 	ldw	r5,188(sp)
    3ccc:	20800017 	ldw	r2,0(r4)
    3cd0:	21000104 	addi	r4,r4,4
    3cd4:	d9002e15 	stw	r4,184(sp)
    3cd8:	11400015 	stw	r5,0(r2)
    3cdc:	0038c106 	br	1fe4 <__alt_mem_Onchip_SRAM+0xf8001fe4>
    3ce0:	00c00b44 	movi	r3,45
    3ce4:	d8c02785 	stb	r3,158(sp)
    3ce8:	d8802915 	stw	r2,164(sp)
    3cec:	dc802c17 	ldw	r18,176(sp)
    3cf0:	d8002a15 	stw	zero,168(sp)
    3cf4:	07000b44 	movi	fp,45
    3cf8:	003a5106 	br	2640 <__alt_mem_Onchip_SRAM+0xf8002640>
    3cfc:	9080004c 	andi	r2,r18,1
    3d00:	1000941e 	bne	r2,zero,3f54 <___svfprintf_internal_r+0x201c>
    3d04:	d8802117 	ldw	r2,132(sp)
    3d08:	1405c83a 	sub	r2,r2,r16
    3d0c:	d8803315 	stw	r2,204(sp)
    3d10:	b441151e 	bne	r22,r17,4168 <___svfprintf_internal_r+0x2230>
    3d14:	dd802617 	ldw	r22,152(sp)
    3d18:	00bfff44 	movi	r2,-3
    3d1c:	b0801a16 	blt	r22,r2,3d88 <___svfprintf_internal_r+0x1e50>
    3d20:	d9402a17 	ldw	r5,168(sp)
    3d24:	2d801816 	blt	r5,r22,3d88 <___svfprintf_internal_r+0x1e50>
    3d28:	dd803215 	stw	r22,200(sp)
    3d2c:	003f3a06 	br	3a18 <__alt_mem_Onchip_SRAM+0xf8003a18>
    3d30:	1025883a 	mov	r18,r2
    3d34:	0039883a 	mov	fp,zero
    3d38:	00800084 	movi	r2,2
    3d3c:	003fd606 	br	3c98 <__alt_mem_Onchip_SRAM+0xf8003c98>
    3d40:	9080004c 	andi	r2,r18,1
    3d44:	103f191e 	bne	r2,zero,39ac <__alt_mem_Onchip_SRAM+0xf80039ac>
    3d48:	d8802117 	ldw	r2,132(sp)
    3d4c:	003f2806 	br	39f0 <__alt_mem_Onchip_SRAM+0xf80039f0>
    3d50:	010000b4 	movhi	r4,2
    3d54:	2133ba84 	addi	r4,r4,-12566
    3d58:	d9002c15 	stw	r4,176(sp)
    3d5c:	003c7c06 	br	2f50 <__alt_mem_Onchip_SRAM+0xf8002f50>
    3d60:	e005883a 	mov	r2,fp
    3d64:	003f2206 	br	39f0 <__alt_mem_Onchip_SRAM+0xf80039f0>
    3d68:	d9002a17 	ldw	r4,168(sp)
    3d6c:	df002783 	ldbu	fp,158(sp)
    3d70:	dd002e15 	stw	r20,184(sp)
    3d74:	d9002915 	stw	r4,164(sp)
    3d78:	d9002b15 	stw	r4,172(sp)
    3d7c:	d8002a15 	stw	zero,168(sp)
    3d80:	d8003215 	stw	zero,200(sp)
    3d84:	003a2a06 	br	2630 <__alt_mem_Onchip_SRAM+0xf8002630>
    3d88:	8c7fff84 	addi	r17,r17,-2
    3d8c:	b5bfffc4 	addi	r22,r22,-1
    3d90:	dd802615 	stw	r22,152(sp)
    3d94:	dc4022c5 	stb	r17,139(sp)
    3d98:	b000c316 	blt	r22,zero,40a8 <___svfprintf_internal_r+0x2170>
    3d9c:	00800ac4 	movi	r2,43
    3da0:	d8802305 	stb	r2,140(sp)
    3da4:	00800244 	movi	r2,9
    3da8:	15806e16 	blt	r2,r22,3f64 <___svfprintf_internal_r+0x202c>
    3dac:	00800c04 	movi	r2,48
    3db0:	b5800c04 	addi	r22,r22,48
    3db4:	d8802345 	stb	r2,141(sp)
    3db8:	dd802385 	stb	r22,142(sp)
    3dbc:	d88023c4 	addi	r2,sp,143
    3dc0:	df0022c4 	addi	fp,sp,139
    3dc4:	d8c03317 	ldw	r3,204(sp)
    3dc8:	1739c83a 	sub	fp,r2,fp
    3dcc:	d9003317 	ldw	r4,204(sp)
    3dd0:	e0c7883a 	add	r3,fp,r3
    3dd4:	df003b15 	stw	fp,236(sp)
    3dd8:	d8c02b15 	stw	r3,172(sp)
    3ddc:	00800044 	movi	r2,1
    3de0:	1100b70e 	bge	r2,r4,40c0 <___svfprintf_internal_r+0x2188>
    3de4:	d8c02b17 	ldw	r3,172(sp)
    3de8:	18c00044 	addi	r3,r3,1
    3dec:	d8c02b15 	stw	r3,172(sp)
    3df0:	1805883a 	mov	r2,r3
    3df4:	1800b016 	blt	r3,zero,40b8 <___svfprintf_internal_r+0x2180>
    3df8:	d8003215 	stw	zero,200(sp)
    3dfc:	003f1006 	br	3a40 <__alt_mem_Onchip_SRAM+0xf8003a40>
    3e00:	d8802a17 	ldw	r2,168(sp)
    3e04:	103ec71e 	bne	r2,zero,3924 <__alt_mem_Onchip_SRAM+0xf8003924>
    3e08:	dc002a15 	stw	r16,168(sp)
    3e0c:	003ec506 	br	3924 <__alt_mem_Onchip_SRAM+0xf8003924>
    3e10:	d9402d17 	ldw	r5,180(sp)
    3e14:	d9801e04 	addi	r6,sp,120
    3e18:	9809883a 	mov	r4,r19
    3e1c:	000ff600 	call	ff60 <__ssprint_r>
    3e20:	10392c1e 	bne	r2,zero,22d4 <__alt_mem_Onchip_SRAM+0xf80022d4>
    3e24:	dc402617 	ldw	r17,152(sp)
    3e28:	d8c02017 	ldw	r3,128(sp)
    3e2c:	d8801f17 	ldw	r2,124(sp)
    3e30:	da000404 	addi	r8,sp,16
    3e34:	003e7706 	br	3814 <__alt_mem_Onchip_SRAM+0xf8003814>
    3e38:	182f883a 	mov	r23,r3
    3e3c:	d8002a15 	stw	zero,168(sp)
    3e40:	00389306 	br	2090 <__alt_mem_Onchip_SRAM+0xf8002090>
    3e44:	d8c02a17 	ldw	r3,168(sp)
    3e48:	d8802104 	addi	r2,sp,132
    3e4c:	d8800315 	stw	r2,12(sp)
    3e50:	d9403617 	ldw	r5,216(sp)
    3e54:	d8802504 	addi	r2,sp,148
    3e58:	d8800215 	stw	r2,8(sp)
    3e5c:	d8802604 	addi	r2,sp,152
    3e60:	d8c00015 	stw	r3,0(sp)
    3e64:	9809883a 	mov	r4,r19
    3e68:	d8800115 	stw	r2,4(sp)
    3e6c:	01c000c4 	movi	r7,3
    3e70:	a00d883a 	mov	r6,r20
    3e74:	da003e15 	stw	r8,248(sp)
    3e78:	00083d00 	call	83d0 <_dtoa_r>
    3e7c:	d9002a17 	ldw	r4,168(sp)
    3e80:	da003e17 	ldw	r8,248(sp)
    3e84:	1021883a 	mov	r16,r2
    3e88:	1139883a 	add	fp,r2,r4
    3e8c:	2007883a 	mov	r3,r4
    3e90:	81000007 	ldb	r4,0(r16)
    3e94:	00800c04 	movi	r2,48
    3e98:	20806f26 	beq	r4,r2,4058 <___svfprintf_internal_r+0x2120>
    3e9c:	d8c02617 	ldw	r3,152(sp)
    3ea0:	e0f9883a 	add	fp,fp,r3
    3ea4:	003ec206 	br	39b0 <__alt_mem_Onchip_SRAM+0xf80039b0>
    3ea8:	00c00b44 	movi	r3,45
    3eac:	2520003c 	xorhi	r20,r4,32768
    3eb0:	d8c02905 	stb	r3,164(sp)
    3eb4:	003ea106 	br	393c <__alt_mem_Onchip_SRAM+0xf800393c>
    3eb8:	d8c03217 	ldw	r3,200(sp)
    3ebc:	00c0890e 	bge	zero,r3,40e4 <___svfprintf_internal_r+0x21ac>
    3ec0:	00800044 	movi	r2,1
    3ec4:	d9003317 	ldw	r4,204(sp)
    3ec8:	1105883a 	add	r2,r2,r4
    3ecc:	d8802b15 	stw	r2,172(sp)
    3ed0:	10005f16 	blt	r2,zero,4050 <___svfprintf_internal_r+0x2118>
    3ed4:	044019c4 	movi	r17,103
    3ed8:	003ed906 	br	3a40 <__alt_mem_Onchip_SRAM+0xf8003a40>
    3edc:	d9002a17 	ldw	r4,168(sp)
    3ee0:	20c00044 	addi	r3,r4,1
    3ee4:	003e9c06 	br	3958 <__alt_mem_Onchip_SRAM+0xf8003958>
    3ee8:	d9002a17 	ldw	r4,168(sp)
    3eec:	00c0680e 	bge	zero,r3,4090 <___svfprintf_internal_r+0x2158>
    3ef0:	2000461e 	bne	r4,zero,400c <___svfprintf_internal_r+0x20d4>
    3ef4:	9480004c 	andi	r18,r18,1
    3ef8:	9000441e 	bne	r18,zero,400c <___svfprintf_internal_r+0x20d4>
    3efc:	1805883a 	mov	r2,r3
    3f00:	1800a116 	blt	r3,zero,4188 <___svfprintf_internal_r+0x2250>
    3f04:	d8c03217 	ldw	r3,200(sp)
    3f08:	d8c02b15 	stw	r3,172(sp)
    3f0c:	003ecc06 	br	3a40 <__alt_mem_Onchip_SRAM+0xf8003a40>
    3f10:	d9402a17 	ldw	r5,168(sp)
    3f14:	d8802104 	addi	r2,sp,132
    3f18:	d8800315 	stw	r2,12(sp)
    3f1c:	d9400015 	stw	r5,0(sp)
    3f20:	d8802504 	addi	r2,sp,148
    3f24:	d9403617 	ldw	r5,216(sp)
    3f28:	d8800215 	stw	r2,8(sp)
    3f2c:	d8802604 	addi	r2,sp,152
    3f30:	d8800115 	stw	r2,4(sp)
    3f34:	01c000c4 	movi	r7,3
    3f38:	a00d883a 	mov	r6,r20
    3f3c:	9809883a 	mov	r4,r19
    3f40:	da003e15 	stw	r8,248(sp)
    3f44:	00083d00 	call	83d0 <_dtoa_r>
    3f48:	d8c02a17 	ldw	r3,168(sp)
    3f4c:	da003e17 	ldw	r8,248(sp)
    3f50:	1021883a 	mov	r16,r2
    3f54:	00801184 	movi	r2,70
    3f58:	80f9883a 	add	fp,r16,r3
    3f5c:	88bfcc26 	beq	r17,r2,3e90 <__alt_mem_Onchip_SRAM+0xf8003e90>
    3f60:	003e9306 	br	39b0 <__alt_mem_Onchip_SRAM+0xf80039b0>
    3f64:	df0022c4 	addi	fp,sp,139
    3f68:	dc002a15 	stw	r16,168(sp)
    3f6c:	9829883a 	mov	r20,r19
    3f70:	e021883a 	mov	r16,fp
    3f74:	4027883a 	mov	r19,r8
    3f78:	b009883a 	mov	r4,r22
    3f7c:	01400284 	movi	r5,10
    3f80:	00018440 	call	1844 <__modsi3>
    3f84:	10800c04 	addi	r2,r2,48
    3f88:	843fffc4 	addi	r16,r16,-1
    3f8c:	b009883a 	mov	r4,r22
    3f90:	01400284 	movi	r5,10
    3f94:	80800005 	stb	r2,0(r16)
    3f98:	00017c00 	call	17c0 <__divsi3>
    3f9c:	102d883a 	mov	r22,r2
    3fa0:	00800244 	movi	r2,9
    3fa4:	15bff416 	blt	r2,r22,3f78 <__alt_mem_Onchip_SRAM+0xf8003f78>
    3fa8:	9811883a 	mov	r8,r19
    3fac:	b0800c04 	addi	r2,r22,48
    3fb0:	a027883a 	mov	r19,r20
    3fb4:	8029883a 	mov	r20,r16
    3fb8:	a17fffc4 	addi	r5,r20,-1
    3fbc:	a0bfffc5 	stb	r2,-1(r20)
    3fc0:	dc002a17 	ldw	r16,168(sp)
    3fc4:	2f00782e 	bgeu	r5,fp,41a8 <___svfprintf_internal_r+0x2270>
    3fc8:	d9c02384 	addi	r7,sp,142
    3fcc:	3d0fc83a 	sub	r7,r7,r20
    3fd0:	d9002344 	addi	r4,sp,141
    3fd4:	e1cf883a 	add	r7,fp,r7
    3fd8:	00000106 	br	3fe0 <___svfprintf_internal_r+0x20a8>
    3fdc:	28800003 	ldbu	r2,0(r5)
    3fe0:	20800005 	stb	r2,0(r4)
    3fe4:	21000044 	addi	r4,r4,1
    3fe8:	29400044 	addi	r5,r5,1
    3fec:	21fffb1e 	bne	r4,r7,3fdc <__alt_mem_Onchip_SRAM+0xf8003fdc>
    3ff0:	d8802304 	addi	r2,sp,140
    3ff4:	1505c83a 	sub	r2,r2,r20
    3ff8:	d8c02344 	addi	r3,sp,141
    3ffc:	1885883a 	add	r2,r3,r2
    4000:	003f7006 	br	3dc4 <__alt_mem_Onchip_SRAM+0xf8003dc4>
    4004:	0005883a 	mov	r2,zero
    4008:	003f0b06 	br	3c38 <__alt_mem_Onchip_SRAM+0xf8003c38>
    400c:	d9002a17 	ldw	r4,168(sp)
    4010:	d8c03217 	ldw	r3,200(sp)
    4014:	20800044 	addi	r2,r4,1
    4018:	1885883a 	add	r2,r3,r2
    401c:	d8802b15 	stw	r2,172(sp)
    4020:	103e870e 	bge	r2,zero,3a40 <__alt_mem_Onchip_SRAM+0xf8003a40>
    4024:	0005883a 	mov	r2,zero
    4028:	003e8506 	br	3a40 <__alt_mem_Onchip_SRAM+0xf8003a40>
    402c:	010000b4 	movhi	r4,2
    4030:	2133ba84 	addi	r4,r4,-12566
    4034:	d9002c15 	stw	r4,176(sp)
    4038:	003cc506 	br	3350 <__alt_mem_Onchip_SRAM+0xf8003350>
    403c:	d8c03217 	ldw	r3,200(sp)
    4040:	18c00044 	addi	r3,r3,1
    4044:	d8c02b15 	stw	r3,172(sp)
    4048:	1805883a 	mov	r2,r3
    404c:	183fa10e 	bge	r3,zero,3ed4 <__alt_mem_Onchip_SRAM+0xf8003ed4>
    4050:	0005883a 	mov	r2,zero
    4054:	003f9f06 	br	3ed4 <__alt_mem_Onchip_SRAM+0xf8003ed4>
    4058:	d9003617 	ldw	r4,216(sp)
    405c:	000d883a 	mov	r6,zero
    4060:	000f883a 	mov	r7,zero
    4064:	a00b883a 	mov	r5,r20
    4068:	d8c03d15 	stw	r3,244(sp)
    406c:	da003e15 	stw	r8,248(sp)
    4070:	00165c80 	call	165c8 <__eqdf2>
    4074:	d8c03d17 	ldw	r3,244(sp)
    4078:	da003e17 	ldw	r8,248(sp)
    407c:	103f8726 	beq	r2,zero,3e9c <__alt_mem_Onchip_SRAM+0xf8003e9c>
    4080:	00800044 	movi	r2,1
    4084:	10c7c83a 	sub	r3,r2,r3
    4088:	d8c02615 	stw	r3,152(sp)
    408c:	003f8406 	br	3ea0 <__alt_mem_Onchip_SRAM+0xf8003ea0>
    4090:	20000e1e 	bne	r4,zero,40cc <___svfprintf_internal_r+0x2194>
    4094:	9480004c 	andi	r18,r18,1
    4098:	90000c1e 	bne	r18,zero,40cc <___svfprintf_internal_r+0x2194>
    409c:	00800044 	movi	r2,1
    40a0:	d8802b15 	stw	r2,172(sp)
    40a4:	003e6606 	br	3a40 <__alt_mem_Onchip_SRAM+0xf8003a40>
    40a8:	00800b44 	movi	r2,45
    40ac:	05adc83a 	sub	r22,zero,r22
    40b0:	d8802305 	stb	r2,140(sp)
    40b4:	003f3b06 	br	3da4 <__alt_mem_Onchip_SRAM+0xf8003da4>
    40b8:	0005883a 	mov	r2,zero
    40bc:	003f4e06 	br	3df8 <__alt_mem_Onchip_SRAM+0xf8003df8>
    40c0:	90a4703a 	and	r18,r18,r2
    40c4:	903f4a26 	beq	r18,zero,3df0 <__alt_mem_Onchip_SRAM+0xf8003df0>
    40c8:	003f4606 	br	3de4 <__alt_mem_Onchip_SRAM+0xf8003de4>
    40cc:	d8c02a17 	ldw	r3,168(sp)
    40d0:	18c00084 	addi	r3,r3,2
    40d4:	d8c02b15 	stw	r3,172(sp)
    40d8:	1805883a 	mov	r2,r3
    40dc:	183e580e 	bge	r3,zero,3a40 <__alt_mem_Onchip_SRAM+0xf8003a40>
    40e0:	003fd006 	br	4024 <__alt_mem_Onchip_SRAM+0xf8004024>
    40e4:	00800084 	movi	r2,2
    40e8:	10c5c83a 	sub	r2,r2,r3
    40ec:	003f7506 	br	3ec4 <__alt_mem_Onchip_SRAM+0xf8003ec4>
    40f0:	d9402e17 	ldw	r5,184(sp)
    40f4:	d9002e17 	ldw	r4,184(sp)
    40f8:	bc400043 	ldbu	r17,1(r23)
    40fc:	29400017 	ldw	r5,0(r5)
    4100:	20800104 	addi	r2,r4,4
    4104:	d8802e15 	stw	r2,184(sp)
    4108:	d9402a15 	stw	r5,168(sp)
    410c:	182f883a 	mov	r23,r3
    4110:	283df10e 	bge	r5,zero,38d8 <__alt_mem_Onchip_SRAM+0xf80038d8>
    4114:	8c403fcc 	andi	r17,r17,255
    4118:	017fffc4 	movi	r5,-1
    411c:	8c40201c 	xori	r17,r17,128
    4120:	d9402a15 	stw	r5,168(sp)
    4124:	8c7fe004 	addi	r17,r17,-128
    4128:	0037d806 	br	208c <__alt_mem_Onchip_SRAM+0xf800208c>
    412c:	9080004c 	andi	r2,r18,1
    4130:	0039883a 	mov	fp,zero
    4134:	10000726 	beq	r2,zero,4154 <___svfprintf_internal_r+0x221c>
    4138:	d8c02817 	ldw	r3,160(sp)
    413c:	dc001dc4 	addi	r16,sp,119
    4140:	00800c04 	movi	r2,48
    4144:	1c07c83a 	sub	r3,r3,r16
    4148:	d8801dc5 	stb	r2,119(sp)
    414c:	d8c02b15 	stw	r3,172(sp)
    4150:	00393106 	br	2618 <__alt_mem_Onchip_SRAM+0xf8002618>
    4154:	d8002b15 	stw	zero,172(sp)
    4158:	dc001e04 	addi	r16,sp,120
    415c:	00392e06 	br	2618 <__alt_mem_Onchip_SRAM+0xf8002618>
    4160:	0005883a 	mov	r2,zero
    4164:	003e3306 	br	3a34 <__alt_mem_Onchip_SRAM+0xf8003a34>
    4168:	dd802617 	ldw	r22,152(sp)
    416c:	003f0706 	br	3d8c <__alt_mem_Onchip_SRAM+0xf8003d8c>
    4170:	d8c02b03 	ldbu	r3,172(sp)
    4174:	d8c02785 	stb	r3,158(sp)
    4178:	003a3506 	br	2a50 <__alt_mem_Onchip_SRAM+0xf8002a50>
    417c:	d8c02b03 	ldbu	r3,172(sp)
    4180:	d8c02785 	stb	r3,158(sp)
    4184:	003a1706 	br	29e4 <__alt_mem_Onchip_SRAM+0xf80029e4>
    4188:	0005883a 	mov	r2,zero
    418c:	003f5d06 	br	3f04 <__alt_mem_Onchip_SRAM+0xf8003f04>
    4190:	d8c02b03 	ldbu	r3,172(sp)
    4194:	d8c02785 	stb	r3,158(sp)
    4198:	0038f306 	br	2568 <__alt_mem_Onchip_SRAM+0xf8002568>
    419c:	d8c02b03 	ldbu	r3,172(sp)
    41a0:	d8c02785 	stb	r3,158(sp)
    41a4:	0038be06 	br	24a0 <__alt_mem_Onchip_SRAM+0xf80024a0>
    41a8:	d8802344 	addi	r2,sp,141
    41ac:	003f0506 	br	3dc4 <__alt_mem_Onchip_SRAM+0xf8003dc4>
    41b0:	d8c02b03 	ldbu	r3,172(sp)
    41b4:	d8c02785 	stb	r3,158(sp)
    41b8:	00388b06 	br	23e8 <__alt_mem_Onchip_SRAM+0xf80023e8>
    41bc:	d8c02b03 	ldbu	r3,172(sp)
    41c0:	d8c02785 	stb	r3,158(sp)
    41c4:	003ad706 	br	2d24 <__alt_mem_Onchip_SRAM+0xf8002d24>
    41c8:	d9403917 	ldw	r5,228(sp)
    41cc:	00800304 	movi	r2,12
    41d0:	28800015 	stw	r2,0(r5)
    41d4:	00bfffc4 	movi	r2,-1
    41d8:	00384306 	br	22e8 <__alt_mem_Onchip_SRAM+0xf80022e8>
    41dc:	d8c02b03 	ldbu	r3,172(sp)
    41e0:	d8c02785 	stb	r3,158(sp)
    41e4:	003ab606 	br	2cc0 <__alt_mem_Onchip_SRAM+0xf8002cc0>
    41e8:	d8c02b03 	ldbu	r3,172(sp)
    41ec:	d8c02785 	stb	r3,158(sp)
    41f0:	003a8906 	br	2c18 <__alt_mem_Onchip_SRAM+0xf8002c18>

000041f4 <time>:
    41f4:	008000b4 	movhi	r2,2
    41f8:	defffc04 	addi	sp,sp,-16
    41fc:	10bc3404 	addi	r2,r2,-3888
    4200:	dc000215 	stw	r16,8(sp)
    4204:	2021883a 	mov	r16,r4
    4208:	11000017 	ldw	r4,0(r2)
    420c:	000d883a 	mov	r6,zero
    4210:	d80b883a 	mov	r5,sp
    4214:	dfc00315 	stw	ra,12(sp)
    4218:	000ada40 	call	ada4 <_gettimeofday_r>
    421c:	10000716 	blt	r2,zero,423c <time+0x48>
    4220:	d8800017 	ldw	r2,0(sp)
    4224:	80000126 	beq	r16,zero,422c <time+0x38>
    4228:	80800015 	stw	r2,0(r16)
    422c:	dfc00317 	ldw	ra,12(sp)
    4230:	dc000217 	ldw	r16,8(sp)
    4234:	dec00404 	addi	sp,sp,16
    4238:	f800283a 	ret
    423c:	00bfffc4 	movi	r2,-1
    4240:	003ffa06 	br	422c <__alt_mem_Onchip_SRAM+0xf800422c>

00004244 <___vfprintf_internal_r>:
    4244:	deffb804 	addi	sp,sp,-288
    4248:	dfc04715 	stw	ra,284(sp)
    424c:	ddc04515 	stw	r23,276(sp)
    4250:	dd404315 	stw	r21,268(sp)
    4254:	d9002d15 	stw	r4,180(sp)
    4258:	282f883a 	mov	r23,r5
    425c:	302b883a 	mov	r21,r6
    4260:	d9c02e15 	stw	r7,184(sp)
    4264:	df004615 	stw	fp,280(sp)
    4268:	dd804415 	stw	r22,272(sp)
    426c:	dd004215 	stw	r20,264(sp)
    4270:	dcc04115 	stw	r19,260(sp)
    4274:	dc804015 	stw	r18,256(sp)
    4278:	dc403f15 	stw	r17,252(sp)
    427c:	dc003e15 	stw	r16,248(sp)
    4280:	000aedc0 	call	aedc <_localeconv_r>
    4284:	10800017 	ldw	r2,0(r2)
    4288:	1009883a 	mov	r4,r2
    428c:	d8803415 	stw	r2,208(sp)
    4290:	0001ea00 	call	1ea0 <strlen>
    4294:	d8803715 	stw	r2,220(sp)
    4298:	d8802d17 	ldw	r2,180(sp)
    429c:	10000226 	beq	r2,zero,42a8 <___vfprintf_internal_r+0x64>
    42a0:	10800e17 	ldw	r2,56(r2)
    42a4:	1000fb26 	beq	r2,zero,4694 <___vfprintf_internal_r+0x450>
    42a8:	b880030b 	ldhu	r2,12(r23)
    42ac:	10c8000c 	andi	r3,r2,8192
    42b0:	1800061e 	bne	r3,zero,42cc <___vfprintf_internal_r+0x88>
    42b4:	b9001917 	ldw	r4,100(r23)
    42b8:	00f7ffc4 	movi	r3,-8193
    42bc:	10880014 	ori	r2,r2,8192
    42c0:	20c6703a 	and	r3,r4,r3
    42c4:	b880030d 	sth	r2,12(r23)
    42c8:	b8c01915 	stw	r3,100(r23)
    42cc:	10c0020c 	andi	r3,r2,8
    42d0:	1800c326 	beq	r3,zero,45e0 <___vfprintf_internal_r+0x39c>
    42d4:	b8c00417 	ldw	r3,16(r23)
    42d8:	1800c126 	beq	r3,zero,45e0 <___vfprintf_internal_r+0x39c>
    42dc:	1080068c 	andi	r2,r2,26
    42e0:	00c00284 	movi	r3,10
    42e4:	10c0c626 	beq	r2,r3,4600 <___vfprintf_internal_r+0x3bc>
    42e8:	d8c00404 	addi	r3,sp,16
    42ec:	050000b4 	movhi	r20,2
    42f0:	d9001e04 	addi	r4,sp,120
    42f4:	a533c284 	addi	r20,r20,-12534
    42f8:	d8c01e15 	stw	r3,120(sp)
    42fc:	d8002015 	stw	zero,128(sp)
    4300:	d8001f15 	stw	zero,124(sp)
    4304:	d8003315 	stw	zero,204(sp)
    4308:	d8003615 	stw	zero,216(sp)
    430c:	d8003815 	stw	zero,224(sp)
    4310:	1811883a 	mov	r8,r3
    4314:	d8003915 	stw	zero,228(sp)
    4318:	d8003a15 	stw	zero,232(sp)
    431c:	d8002f15 	stw	zero,188(sp)
    4320:	d9002815 	stw	r4,160(sp)
    4324:	a8800007 	ldb	r2,0(r21)
    4328:	10028b26 	beq	r2,zero,4d58 <___vfprintf_internal_r+0xb14>
    432c:	00c00944 	movi	r3,37
    4330:	a823883a 	mov	r17,r21
    4334:	10c0021e 	bne	r2,r3,4340 <___vfprintf_internal_r+0xfc>
    4338:	00001406 	br	438c <___vfprintf_internal_r+0x148>
    433c:	10c00326 	beq	r2,r3,434c <___vfprintf_internal_r+0x108>
    4340:	8c400044 	addi	r17,r17,1
    4344:	88800007 	ldb	r2,0(r17)
    4348:	103ffc1e 	bne	r2,zero,433c <__alt_mem_Onchip_SRAM+0xf800433c>
    434c:	8d61c83a 	sub	r16,r17,r21
    4350:	80000e26 	beq	r16,zero,438c <___vfprintf_internal_r+0x148>
    4354:	d8c02017 	ldw	r3,128(sp)
    4358:	d8801f17 	ldw	r2,124(sp)
    435c:	45400015 	stw	r21,0(r8)
    4360:	1c07883a 	add	r3,r3,r16
    4364:	10800044 	addi	r2,r2,1
    4368:	d8c02015 	stw	r3,128(sp)
    436c:	44000115 	stw	r16,4(r8)
    4370:	d8801f15 	stw	r2,124(sp)
    4374:	00c001c4 	movi	r3,7
    4378:	1880a916 	blt	r3,r2,4620 <___vfprintf_internal_r+0x3dc>
    437c:	42000204 	addi	r8,r8,8
    4380:	d9402f17 	ldw	r5,188(sp)
    4384:	2c0b883a 	add	r5,r5,r16
    4388:	d9402f15 	stw	r5,188(sp)
    438c:	88800007 	ldb	r2,0(r17)
    4390:	1000aa26 	beq	r2,zero,463c <___vfprintf_internal_r+0x3f8>
    4394:	8d400044 	addi	r21,r17,1
    4398:	8c400047 	ldb	r17,1(r17)
    439c:	0021883a 	mov	r16,zero
    43a0:	00bfffc4 	movi	r2,-1
    43a4:	0025883a 	mov	r18,zero
    43a8:	dc002905 	stb	r16,164(sp)
    43ac:	d8002785 	stb	zero,158(sp)
    43b0:	d8002b05 	stb	zero,172(sp)
    43b4:	d8802a15 	stw	r2,168(sp)
    43b8:	d8003115 	stw	zero,196(sp)
    43bc:	04c01604 	movi	r19,88
    43c0:	05800244 	movi	r22,9
    43c4:	9021883a 	mov	r16,r18
    43c8:	4039883a 	mov	fp,r8
    43cc:	ad400044 	addi	r21,r21,1
    43d0:	88bff804 	addi	r2,r17,-32
    43d4:	98833236 	bltu	r19,r2,50a0 <___vfprintf_internal_r+0xe5c>
    43d8:	100490ba 	slli	r2,r2,2
    43dc:	00c00034 	movhi	r3,0
    43e0:	18d0fc04 	addi	r3,r3,17392
    43e4:	10c5883a 	add	r2,r2,r3
    43e8:	10800017 	ldw	r2,0(r2)
    43ec:	1000683a 	jmp	r2
    43f0:	00004f98 	cmpnei	zero,zero,318
    43f4:	000050a0 	cmpeqi	zero,zero,322
    43f8:	000050a0 	cmpeqi	zero,zero,322
    43fc:	00004fb8 	rdprs	zero,zero,318
    4400:	000050a0 	cmpeqi	zero,zero,322
    4404:	000050a0 	cmpeqi	zero,zero,322
    4408:	000050a0 	cmpeqi	zero,zero,322
    440c:	000050a0 	cmpeqi	zero,zero,322
    4410:	000050a0 	cmpeqi	zero,zero,322
    4414:	000050a0 	cmpeqi	zero,zero,322
    4418:	000046a0 	cmpeqi	zero,zero,282
    441c:	00004ea8 	cmpgeui	zero,zero,314
    4420:	000050a0 	cmpeqi	zero,zero,322
    4424:	00004564 	muli	zero,zero,277
    4428:	000046c4 	movi	zero,283
    442c:	000050a0 	cmpeqi	zero,zero,322
    4430:	00004714 	movui	zero,284
    4434:	00004720 	cmpeqi	zero,zero,284
    4438:	00004720 	cmpeqi	zero,zero,284
    443c:	00004720 	cmpeqi	zero,zero,284
    4440:	00004720 	cmpeqi	zero,zero,284
    4444:	00004720 	cmpeqi	zero,zero,284
    4448:	00004720 	cmpeqi	zero,zero,284
    444c:	00004720 	cmpeqi	zero,zero,284
    4450:	00004720 	cmpeqi	zero,zero,284
    4454:	00004720 	cmpeqi	zero,zero,284
    4458:	000050a0 	cmpeqi	zero,zero,322
    445c:	000050a0 	cmpeqi	zero,zero,322
    4460:	000050a0 	cmpeqi	zero,zero,322
    4464:	000050a0 	cmpeqi	zero,zero,322
    4468:	000050a0 	cmpeqi	zero,zero,322
    446c:	000050a0 	cmpeqi	zero,zero,322
    4470:	000050a0 	cmpeqi	zero,zero,322
    4474:	000050a0 	cmpeqi	zero,zero,322
    4478:	000050a0 	cmpeqi	zero,zero,322
    447c:	000050a0 	cmpeqi	zero,zero,322
    4480:	0000475c 	xori	zero,zero,285
    4484:	00004824 	muli	zero,zero,288
    4488:	000050a0 	cmpeqi	zero,zero,322
    448c:	00004824 	muli	zero,zero,288
    4490:	000050a0 	cmpeqi	zero,zero,322
    4494:	000050a0 	cmpeqi	zero,zero,322
    4498:	000050a0 	cmpeqi	zero,zero,322
    449c:	000050a0 	cmpeqi	zero,zero,322
    44a0:	000048d0 	cmplti	zero,zero,291
    44a4:	000050a0 	cmpeqi	zero,zero,322
    44a8:	000050a0 	cmpeqi	zero,zero,322
    44ac:	000048dc 	xori	zero,zero,291
    44b0:	000050a0 	cmpeqi	zero,zero,322
    44b4:	000050a0 	cmpeqi	zero,zero,322
    44b8:	000050a0 	cmpeqi	zero,zero,322
    44bc:	000050a0 	cmpeqi	zero,zero,322
    44c0:	000050a0 	cmpeqi	zero,zero,322
    44c4:	00004d60 	cmpeqi	zero,zero,309
    44c8:	000050a0 	cmpeqi	zero,zero,322
    44cc:	000050a0 	cmpeqi	zero,zero,322
    44d0:	00004dcc 	andi	zero,zero,311
    44d4:	000050a0 	cmpeqi	zero,zero,322
    44d8:	000050a0 	cmpeqi	zero,zero,322
    44dc:	000050a0 	cmpeqi	zero,zero,322
    44e0:	000050a0 	cmpeqi	zero,zero,322
    44e4:	000050a0 	cmpeqi	zero,zero,322
    44e8:	000050a0 	cmpeqi	zero,zero,322
    44ec:	000050a0 	cmpeqi	zero,zero,322
    44f0:	000050a0 	cmpeqi	zero,zero,322
    44f4:	000050a0 	cmpeqi	zero,zero,322
    44f8:	000050a0 	cmpeqi	zero,zero,322
    44fc:	00005044 	movi	zero,321
    4500:	00004fc4 	movi	zero,319
    4504:	00004824 	muli	zero,zero,288
    4508:	00004824 	muli	zero,zero,288
    450c:	00004824 	muli	zero,zero,288
    4510:	00004fe4 	muli	zero,zero,319
    4514:	00004fc4 	movi	zero,319
    4518:	000050a0 	cmpeqi	zero,zero,322
    451c:	000050a0 	cmpeqi	zero,zero,322
    4520:	00004ff0 	cmpltui	zero,zero,319
    4524:	000050a0 	cmpeqi	zero,zero,322
    4528:	00005004 	movi	zero,320
    452c:	00004e88 	cmpgei	zero,zero,314
    4530:	00004570 	cmpltui	zero,zero,277
    4534:	00004ec0 	call	4ec <num_to_7Seg+0x80>
    4538:	000050a0 	cmpeqi	zero,zero,322
    453c:	00004ecc 	andi	zero,zero,315
    4540:	000050a0 	cmpeqi	zero,zero,322
    4544:	00004f30 	cmpltui	zero,zero,316
    4548:	000050a0 	cmpeqi	zero,zero,322
    454c:	000050a0 	cmpeqi	zero,zero,322
    4550:	00004f50 	cmplti	zero,zero,317
    4554:	d8c03117 	ldw	r3,196(sp)
    4558:	d8802e15 	stw	r2,184(sp)
    455c:	00c7c83a 	sub	r3,zero,r3
    4560:	d8c03115 	stw	r3,196(sp)
    4564:	84000114 	ori	r16,r16,4
    4568:	ac400007 	ldb	r17,0(r21)
    456c:	003f9706 	br	43cc <__alt_mem_Onchip_SRAM+0xf80043cc>
    4570:	00800c04 	movi	r2,48
    4574:	d8802705 	stb	r2,156(sp)
    4578:	00801e04 	movi	r2,120
    457c:	d8802745 	stb	r2,157(sp)
    4580:	d9002a17 	ldw	r4,168(sp)
    4584:	d8802e17 	ldw	r2,184(sp)
    4588:	d8002785 	stb	zero,158(sp)
    458c:	e011883a 	mov	r8,fp
    4590:	10c00104 	addi	r3,r2,4
    4594:	14c00017 	ldw	r19,0(r2)
    4598:	002d883a 	mov	r22,zero
    459c:	80800094 	ori	r2,r16,2
    45a0:	2002ca16 	blt	r4,zero,50cc <___vfprintf_internal_r+0xe88>
    45a4:	00bfdfc4 	movi	r2,-129
    45a8:	80a4703a 	and	r18,r16,r2
    45ac:	d8c02e15 	stw	r3,184(sp)
    45b0:	94800094 	ori	r18,r18,2
    45b4:	9802b41e 	bne	r19,zero,5088 <___vfprintf_internal_r+0xe44>
    45b8:	014000b4 	movhi	r5,2
    45bc:	2973b304 	addi	r5,r5,-12596
    45c0:	d9403915 	stw	r5,228(sp)
    45c4:	04401e04 	movi	r17,120
    45c8:	d8802a17 	ldw	r2,168(sp)
    45cc:	0039883a 	mov	fp,zero
    45d0:	1001fa26 	beq	r2,zero,4dbc <___vfprintf_internal_r+0xb78>
    45d4:	0027883a 	mov	r19,zero
    45d8:	002d883a 	mov	r22,zero
    45dc:	00021906 	br	4e44 <___vfprintf_internal_r+0xc00>
    45e0:	d9002d17 	ldw	r4,180(sp)
    45e4:	b80b883a 	mov	r5,r23
    45e8:	00080540 	call	8054 <__swsetup_r>
    45ec:	1005dc1e 	bne	r2,zero,5d60 <___vfprintf_internal_r+0x1b1c>
    45f0:	b880030b 	ldhu	r2,12(r23)
    45f4:	00c00284 	movi	r3,10
    45f8:	1080068c 	andi	r2,r2,26
    45fc:	10ff3a1e 	bne	r2,r3,42e8 <__alt_mem_Onchip_SRAM+0xf80042e8>
    4600:	b880038f 	ldh	r2,14(r23)
    4604:	103f3816 	blt	r2,zero,42e8 <__alt_mem_Onchip_SRAM+0xf80042e8>
    4608:	d9c02e17 	ldw	r7,184(sp)
    460c:	d9002d17 	ldw	r4,180(sp)
    4610:	a80d883a 	mov	r6,r21
    4614:	b80b883a 	mov	r5,r23
    4618:	000653c0 	call	653c <__sbprintf>
    461c:	00001106 	br	4664 <___vfprintf_internal_r+0x420>
    4620:	d9002d17 	ldw	r4,180(sp)
    4624:	d9801e04 	addi	r6,sp,120
    4628:	b80b883a 	mov	r5,r23
    462c:	001184c0 	call	1184c <__sprint_r>
    4630:	1000081e 	bne	r2,zero,4654 <___vfprintf_internal_r+0x410>
    4634:	da000404 	addi	r8,sp,16
    4638:	003f5106 	br	4380 <__alt_mem_Onchip_SRAM+0xf8004380>
    463c:	d8802017 	ldw	r2,128(sp)
    4640:	10000426 	beq	r2,zero,4654 <___vfprintf_internal_r+0x410>
    4644:	d9002d17 	ldw	r4,180(sp)
    4648:	d9801e04 	addi	r6,sp,120
    464c:	b80b883a 	mov	r5,r23
    4650:	001184c0 	call	1184c <__sprint_r>
    4654:	b880030b 	ldhu	r2,12(r23)
    4658:	1080100c 	andi	r2,r2,64
    465c:	1005c01e 	bne	r2,zero,5d60 <___vfprintf_internal_r+0x1b1c>
    4660:	d8802f17 	ldw	r2,188(sp)
    4664:	dfc04717 	ldw	ra,284(sp)
    4668:	df004617 	ldw	fp,280(sp)
    466c:	ddc04517 	ldw	r23,276(sp)
    4670:	dd804417 	ldw	r22,272(sp)
    4674:	dd404317 	ldw	r21,268(sp)
    4678:	dd004217 	ldw	r20,264(sp)
    467c:	dcc04117 	ldw	r19,260(sp)
    4680:	dc804017 	ldw	r18,256(sp)
    4684:	dc403f17 	ldw	r17,252(sp)
    4688:	dc003e17 	ldw	r16,248(sp)
    468c:	dec04804 	addi	sp,sp,288
    4690:	f800283a 	ret
    4694:	d9002d17 	ldw	r4,180(sp)
    4698:	000a0600 	call	a060 <__sinit>
    469c:	003f0206 	br	42a8 <__alt_mem_Onchip_SRAM+0xf80042a8>
    46a0:	d9002e17 	ldw	r4,184(sp)
    46a4:	d9402e17 	ldw	r5,184(sp)
    46a8:	21000017 	ldw	r4,0(r4)
    46ac:	28800104 	addi	r2,r5,4
    46b0:	d9003115 	stw	r4,196(sp)
    46b4:	203fa716 	blt	r4,zero,4554 <__alt_mem_Onchip_SRAM+0xf8004554>
    46b8:	d8802e15 	stw	r2,184(sp)
    46bc:	ac400007 	ldb	r17,0(r21)
    46c0:	003f4206 	br	43cc <__alt_mem_Onchip_SRAM+0xf80043cc>
    46c4:	ac400007 	ldb	r17,0(r21)
    46c8:	01000a84 	movi	r4,42
    46cc:	a8c00044 	addi	r3,r21,1
    46d0:	89075826 	beq	r17,r4,6434 <___vfprintf_internal_r+0x21f0>
    46d4:	8cbff404 	addi	r18,r17,-48
    46d8:	b486ae36 	bltu	r22,r18,6194 <___vfprintf_internal_r+0x1f50>
    46dc:	0009883a 	mov	r4,zero
    46e0:	1823883a 	mov	r17,r3
    46e4:	01400284 	movi	r5,10
    46e8:	00019740 	call	1974 <__mulsi3>
    46ec:	88c00007 	ldb	r3,0(r17)
    46f0:	1489883a 	add	r4,r2,r18
    46f4:	8d400044 	addi	r21,r17,1
    46f8:	1cbff404 	addi	r18,r3,-48
    46fc:	a823883a 	mov	r17,r21
    4700:	b4bff82e 	bgeu	r22,r18,46e4 <__alt_mem_Onchip_SRAM+0xf80046e4>
    4704:	1823883a 	mov	r17,r3
    4708:	2005f616 	blt	r4,zero,5ee4 <___vfprintf_internal_r+0x1ca0>
    470c:	d9002a15 	stw	r4,168(sp)
    4710:	003f2f06 	br	43d0 <__alt_mem_Onchip_SRAM+0xf80043d0>
    4714:	84002014 	ori	r16,r16,128
    4718:	ac400007 	ldb	r17,0(r21)
    471c:	003f2b06 	br	43cc <__alt_mem_Onchip_SRAM+0xf80043cc>
    4720:	8cbff404 	addi	r18,r17,-48
    4724:	d8003115 	stw	zero,196(sp)
    4728:	0009883a 	mov	r4,zero
    472c:	a823883a 	mov	r17,r21
    4730:	01400284 	movi	r5,10
    4734:	00019740 	call	1974 <__mulsi3>
    4738:	88c00007 	ldb	r3,0(r17)
    473c:	9089883a 	add	r4,r18,r2
    4740:	ad400044 	addi	r21,r21,1
    4744:	1cbff404 	addi	r18,r3,-48
    4748:	a823883a 	mov	r17,r21
    474c:	b4bff82e 	bgeu	r22,r18,4730 <__alt_mem_Onchip_SRAM+0xf8004730>
    4750:	1823883a 	mov	r17,r3
    4754:	d9003115 	stw	r4,196(sp)
    4758:	003f1d06 	br	43d0 <__alt_mem_Onchip_SRAM+0xf80043d0>
    475c:	8025883a 	mov	r18,r16
    4760:	dc002903 	ldbu	r16,164(sp)
    4764:	e011883a 	mov	r8,fp
    4768:	84003fcc 	andi	r16,r16,255
    476c:	8007531e 	bne	r16,zero,64bc <___vfprintf_internal_r+0x2278>
    4770:	94800414 	ori	r18,r18,16
    4774:	9080080c 	andi	r2,r18,32
    4778:	1003a326 	beq	r2,zero,5608 <___vfprintf_internal_r+0x13c4>
    477c:	d9002e17 	ldw	r4,184(sp)
    4780:	20800117 	ldw	r2,4(r4)
    4784:	24c00017 	ldw	r19,0(r4)
    4788:	21000204 	addi	r4,r4,8
    478c:	d9002e15 	stw	r4,184(sp)
    4790:	102d883a 	mov	r22,r2
    4794:	10047316 	blt	r2,zero,5964 <___vfprintf_internal_r+0x1720>
    4798:	d9002a17 	ldw	r4,168(sp)
    479c:	df002783 	ldbu	fp,158(sp)
    47a0:	2003e416 	blt	r4,zero,5734 <___vfprintf_internal_r+0x14f0>
    47a4:	00ffdfc4 	movi	r3,-129
    47a8:	9d84b03a 	or	r2,r19,r22
    47ac:	90e4703a 	and	r18,r18,r3
    47b0:	10018026 	beq	r2,zero,4db4 <___vfprintf_internal_r+0xb70>
    47b4:	b003ab26 	beq	r22,zero,5664 <___vfprintf_internal_r+0x1420>
    47b8:	dc402915 	stw	r17,164(sp)
    47bc:	dc001e04 	addi	r16,sp,120
    47c0:	b023883a 	mov	r17,r22
    47c4:	402d883a 	mov	r22,r8
    47c8:	9809883a 	mov	r4,r19
    47cc:	880b883a 	mov	r5,r17
    47d0:	01800284 	movi	r6,10
    47d4:	000f883a 	mov	r7,zero
    47d8:	0014b8c0 	call	14b8c <__umoddi3>
    47dc:	10800c04 	addi	r2,r2,48
    47e0:	843fffc4 	addi	r16,r16,-1
    47e4:	9809883a 	mov	r4,r19
    47e8:	880b883a 	mov	r5,r17
    47ec:	80800005 	stb	r2,0(r16)
    47f0:	01800284 	movi	r6,10
    47f4:	000f883a 	mov	r7,zero
    47f8:	00145900 	call	14590 <__udivdi3>
    47fc:	1027883a 	mov	r19,r2
    4800:	10c4b03a 	or	r2,r2,r3
    4804:	1823883a 	mov	r17,r3
    4808:	103fef1e 	bne	r2,zero,47c8 <__alt_mem_Onchip_SRAM+0xf80047c8>
    480c:	d8c02817 	ldw	r3,160(sp)
    4810:	dc402917 	ldw	r17,164(sp)
    4814:	b011883a 	mov	r8,r22
    4818:	1c07c83a 	sub	r3,r3,r16
    481c:	d8c02b15 	stw	r3,172(sp)
    4820:	00005f06 	br	49a0 <___vfprintf_internal_r+0x75c>
    4824:	8025883a 	mov	r18,r16
    4828:	dc002903 	ldbu	r16,164(sp)
    482c:	e011883a 	mov	r8,fp
    4830:	84003fcc 	andi	r16,r16,255
    4834:	80071e1e 	bne	r16,zero,64b0 <___vfprintf_internal_r+0x226c>
    4838:	9080020c 	andi	r2,r18,8
    483c:	1004af26 	beq	r2,zero,5afc <___vfprintf_internal_r+0x18b8>
    4840:	d9002e17 	ldw	r4,184(sp)
    4844:	d9402e17 	ldw	r5,184(sp)
    4848:	d8802e17 	ldw	r2,184(sp)
    484c:	21000017 	ldw	r4,0(r4)
    4850:	29400117 	ldw	r5,4(r5)
    4854:	10800204 	addi	r2,r2,8
    4858:	d9003615 	stw	r4,216(sp)
    485c:	d9403815 	stw	r5,224(sp)
    4860:	d8802e15 	stw	r2,184(sp)
    4864:	d9003617 	ldw	r4,216(sp)
    4868:	d9403817 	ldw	r5,224(sp)
    486c:	da003d15 	stw	r8,244(sp)
    4870:	04000044 	movi	r16,1
    4874:	000d91c0 	call	d91c <__fpclassifyd>
    4878:	da003d17 	ldw	r8,244(sp)
    487c:	1404441e 	bne	r2,r16,5990 <___vfprintf_internal_r+0x174c>
    4880:	d9003617 	ldw	r4,216(sp)
    4884:	d9403817 	ldw	r5,224(sp)
    4888:	000d883a 	mov	r6,zero
    488c:	000f883a 	mov	r7,zero
    4890:	001672c0 	call	1672c <__ledf2>
    4894:	da003d17 	ldw	r8,244(sp)
    4898:	1005e316 	blt	r2,zero,6028 <___vfprintf_internal_r+0x1de4>
    489c:	df002783 	ldbu	fp,158(sp)
    48a0:	008011c4 	movi	r2,71
    48a4:	1445580e 	bge	r2,r17,5e08 <___vfprintf_internal_r+0x1bc4>
    48a8:	040000b4 	movhi	r16,2
    48ac:	8433ab04 	addi	r16,r16,-12628
    48b0:	00c000c4 	movi	r3,3
    48b4:	00bfdfc4 	movi	r2,-129
    48b8:	d8c02915 	stw	r3,164(sp)
    48bc:	90a4703a 	and	r18,r18,r2
    48c0:	d8c02b15 	stw	r3,172(sp)
    48c4:	d8002a15 	stw	zero,168(sp)
    48c8:	d8003215 	stw	zero,200(sp)
    48cc:	00003a06 	br	49b8 <___vfprintf_internal_r+0x774>
    48d0:	84000214 	ori	r16,r16,8
    48d4:	ac400007 	ldb	r17,0(r21)
    48d8:	003ebc06 	br	43cc <__alt_mem_Onchip_SRAM+0xf80043cc>
    48dc:	8025883a 	mov	r18,r16
    48e0:	dc002903 	ldbu	r16,164(sp)
    48e4:	e011883a 	mov	r8,fp
    48e8:	84003fcc 	andi	r16,r16,255
    48ec:	8007001e 	bne	r16,zero,64f0 <___vfprintf_internal_r+0x22ac>
    48f0:	94800414 	ori	r18,r18,16
    48f4:	9080080c 	andi	r2,r18,32
    48f8:	1002fa26 	beq	r2,zero,54e4 <___vfprintf_internal_r+0x12a0>
    48fc:	d9002e17 	ldw	r4,184(sp)
    4900:	d9402a17 	ldw	r5,168(sp)
    4904:	d8002785 	stb	zero,158(sp)
    4908:	20800204 	addi	r2,r4,8
    490c:	24c00017 	ldw	r19,0(r4)
    4910:	25800117 	ldw	r22,4(r4)
    4914:	2804b116 	blt	r5,zero,5bdc <___vfprintf_internal_r+0x1998>
    4918:	013fdfc4 	movi	r4,-129
    491c:	9d86b03a 	or	r3,r19,r22
    4920:	d8802e15 	stw	r2,184(sp)
    4924:	9124703a 	and	r18,r18,r4
    4928:	1802fb1e 	bne	r3,zero,5518 <___vfprintf_internal_r+0x12d4>
    492c:	d8c02a17 	ldw	r3,168(sp)
    4930:	0039883a 	mov	fp,zero
    4934:	1805e526 	beq	r3,zero,60cc <___vfprintf_internal_r+0x1e88>
    4938:	0027883a 	mov	r19,zero
    493c:	002d883a 	mov	r22,zero
    4940:	dc001e04 	addi	r16,sp,120
    4944:	9806d0fa 	srli	r3,r19,3
    4948:	b008977a 	slli	r4,r22,29
    494c:	b02cd0fa 	srli	r22,r22,3
    4950:	9cc001cc 	andi	r19,r19,7
    4954:	98800c04 	addi	r2,r19,48
    4958:	843fffc4 	addi	r16,r16,-1
    495c:	20e6b03a 	or	r19,r4,r3
    4960:	80800005 	stb	r2,0(r16)
    4964:	9d86b03a 	or	r3,r19,r22
    4968:	183ff61e 	bne	r3,zero,4944 <__alt_mem_Onchip_SRAM+0xf8004944>
    496c:	90c0004c 	andi	r3,r18,1
    4970:	18014126 	beq	r3,zero,4e78 <___vfprintf_internal_r+0xc34>
    4974:	10803fcc 	andi	r2,r2,255
    4978:	1080201c 	xori	r2,r2,128
    497c:	10bfe004 	addi	r2,r2,-128
    4980:	00c00c04 	movi	r3,48
    4984:	10c13c26 	beq	r2,r3,4e78 <___vfprintf_internal_r+0xc34>
    4988:	80ffffc5 	stb	r3,-1(r16)
    498c:	d8c02817 	ldw	r3,160(sp)
    4990:	80bfffc4 	addi	r2,r16,-1
    4994:	1021883a 	mov	r16,r2
    4998:	1887c83a 	sub	r3,r3,r2
    499c:	d8c02b15 	stw	r3,172(sp)
    49a0:	d8802b17 	ldw	r2,172(sp)
    49a4:	d9002a17 	ldw	r4,168(sp)
    49a8:	1100010e 	bge	r2,r4,49b0 <___vfprintf_internal_r+0x76c>
    49ac:	2005883a 	mov	r2,r4
    49b0:	d8802915 	stw	r2,164(sp)
    49b4:	d8003215 	stw	zero,200(sp)
    49b8:	e7003fcc 	andi	fp,fp,255
    49bc:	e700201c 	xori	fp,fp,128
    49c0:	e73fe004 	addi	fp,fp,-128
    49c4:	e0000326 	beq	fp,zero,49d4 <___vfprintf_internal_r+0x790>
    49c8:	d8c02917 	ldw	r3,164(sp)
    49cc:	18c00044 	addi	r3,r3,1
    49d0:	d8c02915 	stw	r3,164(sp)
    49d4:	90c0008c 	andi	r3,r18,2
    49d8:	d8c02c15 	stw	r3,176(sp)
    49dc:	18000326 	beq	r3,zero,49ec <___vfprintf_internal_r+0x7a8>
    49e0:	d8c02917 	ldw	r3,164(sp)
    49e4:	18c00084 	addi	r3,r3,2
    49e8:	d8c02915 	stw	r3,164(sp)
    49ec:	90c0210c 	andi	r3,r18,132
    49f0:	d8c03015 	stw	r3,192(sp)
    49f4:	1801c51e 	bne	r3,zero,510c <___vfprintf_internal_r+0xec8>
    49f8:	d9003117 	ldw	r4,196(sp)
    49fc:	d8c02917 	ldw	r3,164(sp)
    4a00:	20e7c83a 	sub	r19,r4,r3
    4a04:	04c1c10e 	bge	zero,r19,510c <___vfprintf_internal_r+0xec8>
    4a08:	02400404 	movi	r9,16
    4a0c:	d8c02017 	ldw	r3,128(sp)
    4a10:	d8801f17 	ldw	r2,124(sp)
    4a14:	4cc52f0e 	bge	r9,r19,5ed4 <___vfprintf_internal_r+0x1c90>
    4a18:	014000b4 	movhi	r5,2
    4a1c:	2973c684 	addi	r5,r5,-12518
    4a20:	dc403b15 	stw	r17,236(sp)
    4a24:	d9403515 	stw	r5,212(sp)
    4a28:	9823883a 	mov	r17,r19
    4a2c:	482d883a 	mov	r22,r9
    4a30:	9027883a 	mov	r19,r18
    4a34:	070001c4 	movi	fp,7
    4a38:	8025883a 	mov	r18,r16
    4a3c:	dc002d17 	ldw	r16,180(sp)
    4a40:	00000306 	br	4a50 <___vfprintf_internal_r+0x80c>
    4a44:	8c7ffc04 	addi	r17,r17,-16
    4a48:	42000204 	addi	r8,r8,8
    4a4c:	b440130e 	bge	r22,r17,4a9c <___vfprintf_internal_r+0x858>
    4a50:	010000b4 	movhi	r4,2
    4a54:	18c00404 	addi	r3,r3,16
    4a58:	10800044 	addi	r2,r2,1
    4a5c:	2133c684 	addi	r4,r4,-12518
    4a60:	41000015 	stw	r4,0(r8)
    4a64:	45800115 	stw	r22,4(r8)
    4a68:	d8c02015 	stw	r3,128(sp)
    4a6c:	d8801f15 	stw	r2,124(sp)
    4a70:	e0bff40e 	bge	fp,r2,4a44 <__alt_mem_Onchip_SRAM+0xf8004a44>
    4a74:	d9801e04 	addi	r6,sp,120
    4a78:	b80b883a 	mov	r5,r23
    4a7c:	8009883a 	mov	r4,r16
    4a80:	001184c0 	call	1184c <__sprint_r>
    4a84:	103ef31e 	bne	r2,zero,4654 <__alt_mem_Onchip_SRAM+0xf8004654>
    4a88:	8c7ffc04 	addi	r17,r17,-16
    4a8c:	d8c02017 	ldw	r3,128(sp)
    4a90:	d8801f17 	ldw	r2,124(sp)
    4a94:	da000404 	addi	r8,sp,16
    4a98:	b47fed16 	blt	r22,r17,4a50 <__alt_mem_Onchip_SRAM+0xf8004a50>
    4a9c:	9021883a 	mov	r16,r18
    4aa0:	9825883a 	mov	r18,r19
    4aa4:	8827883a 	mov	r19,r17
    4aa8:	dc403b17 	ldw	r17,236(sp)
    4aac:	d9403517 	ldw	r5,212(sp)
    4ab0:	98c7883a 	add	r3,r19,r3
    4ab4:	10800044 	addi	r2,r2,1
    4ab8:	41400015 	stw	r5,0(r8)
    4abc:	44c00115 	stw	r19,4(r8)
    4ac0:	d8c02015 	stw	r3,128(sp)
    4ac4:	d8801f15 	stw	r2,124(sp)
    4ac8:	010001c4 	movi	r4,7
    4acc:	2082c516 	blt	r4,r2,55e4 <___vfprintf_internal_r+0x13a0>
    4ad0:	df002787 	ldb	fp,158(sp)
    4ad4:	42000204 	addi	r8,r8,8
    4ad8:	e0000c26 	beq	fp,zero,4b0c <___vfprintf_internal_r+0x8c8>
    4adc:	d8801f17 	ldw	r2,124(sp)
    4ae0:	d9002784 	addi	r4,sp,158
    4ae4:	18c00044 	addi	r3,r3,1
    4ae8:	10800044 	addi	r2,r2,1
    4aec:	41000015 	stw	r4,0(r8)
    4af0:	01000044 	movi	r4,1
    4af4:	41000115 	stw	r4,4(r8)
    4af8:	d8c02015 	stw	r3,128(sp)
    4afc:	d8801f15 	stw	r2,124(sp)
    4b00:	010001c4 	movi	r4,7
    4b04:	20825e16 	blt	r4,r2,5480 <___vfprintf_internal_r+0x123c>
    4b08:	42000204 	addi	r8,r8,8
    4b0c:	d8802c17 	ldw	r2,176(sp)
    4b10:	10000c26 	beq	r2,zero,4b44 <___vfprintf_internal_r+0x900>
    4b14:	d8801f17 	ldw	r2,124(sp)
    4b18:	d9002704 	addi	r4,sp,156
    4b1c:	18c00084 	addi	r3,r3,2
    4b20:	10800044 	addi	r2,r2,1
    4b24:	41000015 	stw	r4,0(r8)
    4b28:	01000084 	movi	r4,2
    4b2c:	41000115 	stw	r4,4(r8)
    4b30:	d8c02015 	stw	r3,128(sp)
    4b34:	d8801f15 	stw	r2,124(sp)
    4b38:	010001c4 	movi	r4,7
    4b3c:	20825816 	blt	r4,r2,54a0 <___vfprintf_internal_r+0x125c>
    4b40:	42000204 	addi	r8,r8,8
    4b44:	d9003017 	ldw	r4,192(sp)
    4b48:	00802004 	movi	r2,128
    4b4c:	2081bb26 	beq	r4,r2,523c <___vfprintf_internal_r+0xff8>
    4b50:	d9402a17 	ldw	r5,168(sp)
    4b54:	d8802b17 	ldw	r2,172(sp)
    4b58:	28adc83a 	sub	r22,r5,r2
    4b5c:	0580310e 	bge	zero,r22,4c24 <___vfprintf_internal_r+0x9e0>
    4b60:	07000404 	movi	fp,16
    4b64:	d8801f17 	ldw	r2,124(sp)
    4b68:	e584360e 	bge	fp,r22,5c44 <___vfprintf_internal_r+0x1a00>
    4b6c:	014000b4 	movhi	r5,2
    4b70:	2973c284 	addi	r5,r5,-12534
    4b74:	dc402a15 	stw	r17,168(sp)
    4b78:	d9402c15 	stw	r5,176(sp)
    4b7c:	b023883a 	mov	r17,r22
    4b80:	04c001c4 	movi	r19,7
    4b84:	a82d883a 	mov	r22,r21
    4b88:	902b883a 	mov	r21,r18
    4b8c:	8025883a 	mov	r18,r16
    4b90:	dc002d17 	ldw	r16,180(sp)
    4b94:	00000306 	br	4ba4 <___vfprintf_internal_r+0x960>
    4b98:	8c7ffc04 	addi	r17,r17,-16
    4b9c:	42000204 	addi	r8,r8,8
    4ba0:	e440110e 	bge	fp,r17,4be8 <___vfprintf_internal_r+0x9a4>
    4ba4:	18c00404 	addi	r3,r3,16
    4ba8:	10800044 	addi	r2,r2,1
    4bac:	45000015 	stw	r20,0(r8)
    4bb0:	47000115 	stw	fp,4(r8)
    4bb4:	d8c02015 	stw	r3,128(sp)
    4bb8:	d8801f15 	stw	r2,124(sp)
    4bbc:	98bff60e 	bge	r19,r2,4b98 <__alt_mem_Onchip_SRAM+0xf8004b98>
    4bc0:	d9801e04 	addi	r6,sp,120
    4bc4:	b80b883a 	mov	r5,r23
    4bc8:	8009883a 	mov	r4,r16
    4bcc:	001184c0 	call	1184c <__sprint_r>
    4bd0:	103ea01e 	bne	r2,zero,4654 <__alt_mem_Onchip_SRAM+0xf8004654>
    4bd4:	8c7ffc04 	addi	r17,r17,-16
    4bd8:	d8c02017 	ldw	r3,128(sp)
    4bdc:	d8801f17 	ldw	r2,124(sp)
    4be0:	da000404 	addi	r8,sp,16
    4be4:	e47fef16 	blt	fp,r17,4ba4 <__alt_mem_Onchip_SRAM+0xf8004ba4>
    4be8:	9021883a 	mov	r16,r18
    4bec:	a825883a 	mov	r18,r21
    4bf0:	b02b883a 	mov	r21,r22
    4bf4:	882d883a 	mov	r22,r17
    4bf8:	dc402a17 	ldw	r17,168(sp)
    4bfc:	d9002c17 	ldw	r4,176(sp)
    4c00:	1d87883a 	add	r3,r3,r22
    4c04:	10800044 	addi	r2,r2,1
    4c08:	41000015 	stw	r4,0(r8)
    4c0c:	45800115 	stw	r22,4(r8)
    4c10:	d8c02015 	stw	r3,128(sp)
    4c14:	d8801f15 	stw	r2,124(sp)
    4c18:	010001c4 	movi	r4,7
    4c1c:	20821016 	blt	r4,r2,5460 <___vfprintf_internal_r+0x121c>
    4c20:	42000204 	addi	r8,r8,8
    4c24:	9080400c 	andi	r2,r18,256
    4c28:	10013a1e 	bne	r2,zero,5114 <___vfprintf_internal_r+0xed0>
    4c2c:	d9402b17 	ldw	r5,172(sp)
    4c30:	d8801f17 	ldw	r2,124(sp)
    4c34:	44000015 	stw	r16,0(r8)
    4c38:	1947883a 	add	r3,r3,r5
    4c3c:	10800044 	addi	r2,r2,1
    4c40:	41400115 	stw	r5,4(r8)
    4c44:	d8c02015 	stw	r3,128(sp)
    4c48:	d8801f15 	stw	r2,124(sp)
    4c4c:	010001c4 	movi	r4,7
    4c50:	2081f516 	blt	r4,r2,5428 <___vfprintf_internal_r+0x11e4>
    4c54:	42000204 	addi	r8,r8,8
    4c58:	9480010c 	andi	r18,r18,4
    4c5c:	90003226 	beq	r18,zero,4d28 <___vfprintf_internal_r+0xae4>
    4c60:	d9403117 	ldw	r5,196(sp)
    4c64:	d8802917 	ldw	r2,164(sp)
    4c68:	28a1c83a 	sub	r16,r5,r2
    4c6c:	04002e0e 	bge	zero,r16,4d28 <___vfprintf_internal_r+0xae4>
    4c70:	04400404 	movi	r17,16
    4c74:	d8801f17 	ldw	r2,124(sp)
    4c78:	8c04c40e 	bge	r17,r16,5f8c <___vfprintf_internal_r+0x1d48>
    4c7c:	014000b4 	movhi	r5,2
    4c80:	2973c684 	addi	r5,r5,-12518
    4c84:	d9403515 	stw	r5,212(sp)
    4c88:	048001c4 	movi	r18,7
    4c8c:	dcc02d17 	ldw	r19,180(sp)
    4c90:	00000306 	br	4ca0 <___vfprintf_internal_r+0xa5c>
    4c94:	843ffc04 	addi	r16,r16,-16
    4c98:	42000204 	addi	r8,r8,8
    4c9c:	8c00130e 	bge	r17,r16,4cec <___vfprintf_internal_r+0xaa8>
    4ca0:	010000b4 	movhi	r4,2
    4ca4:	18c00404 	addi	r3,r3,16
    4ca8:	10800044 	addi	r2,r2,1
    4cac:	2133c684 	addi	r4,r4,-12518
    4cb0:	41000015 	stw	r4,0(r8)
    4cb4:	44400115 	stw	r17,4(r8)
    4cb8:	d8c02015 	stw	r3,128(sp)
    4cbc:	d8801f15 	stw	r2,124(sp)
    4cc0:	90bff40e 	bge	r18,r2,4c94 <__alt_mem_Onchip_SRAM+0xf8004c94>
    4cc4:	d9801e04 	addi	r6,sp,120
    4cc8:	b80b883a 	mov	r5,r23
    4ccc:	9809883a 	mov	r4,r19
    4cd0:	001184c0 	call	1184c <__sprint_r>
    4cd4:	103e5f1e 	bne	r2,zero,4654 <__alt_mem_Onchip_SRAM+0xf8004654>
    4cd8:	843ffc04 	addi	r16,r16,-16
    4cdc:	d8c02017 	ldw	r3,128(sp)
    4ce0:	d8801f17 	ldw	r2,124(sp)
    4ce4:	da000404 	addi	r8,sp,16
    4ce8:	8c3fed16 	blt	r17,r16,4ca0 <__alt_mem_Onchip_SRAM+0xf8004ca0>
    4cec:	d9403517 	ldw	r5,212(sp)
    4cf0:	1c07883a 	add	r3,r3,r16
    4cf4:	10800044 	addi	r2,r2,1
    4cf8:	41400015 	stw	r5,0(r8)
    4cfc:	44000115 	stw	r16,4(r8)
    4d00:	d8c02015 	stw	r3,128(sp)
    4d04:	d8801f15 	stw	r2,124(sp)
    4d08:	010001c4 	movi	r4,7
    4d0c:	2080060e 	bge	r4,r2,4d28 <___vfprintf_internal_r+0xae4>
    4d10:	d9002d17 	ldw	r4,180(sp)
    4d14:	d9801e04 	addi	r6,sp,120
    4d18:	b80b883a 	mov	r5,r23
    4d1c:	001184c0 	call	1184c <__sprint_r>
    4d20:	103e4c1e 	bne	r2,zero,4654 <__alt_mem_Onchip_SRAM+0xf8004654>
    4d24:	d8c02017 	ldw	r3,128(sp)
    4d28:	d8803117 	ldw	r2,196(sp)
    4d2c:	d9002917 	ldw	r4,164(sp)
    4d30:	1100010e 	bge	r2,r4,4d38 <___vfprintf_internal_r+0xaf4>
    4d34:	2005883a 	mov	r2,r4
    4d38:	d9402f17 	ldw	r5,188(sp)
    4d3c:	288b883a 	add	r5,r5,r2
    4d40:	d9402f15 	stw	r5,188(sp)
    4d44:	1801c01e 	bne	r3,zero,5448 <___vfprintf_internal_r+0x1204>
    4d48:	a8800007 	ldb	r2,0(r21)
    4d4c:	d8001f15 	stw	zero,124(sp)
    4d50:	da000404 	addi	r8,sp,16
    4d54:	103d751e 	bne	r2,zero,432c <__alt_mem_Onchip_SRAM+0xf800432c>
    4d58:	a823883a 	mov	r17,r21
    4d5c:	003d8b06 	br	438c <__alt_mem_Onchip_SRAM+0xf800438c>
    4d60:	8025883a 	mov	r18,r16
    4d64:	dc002903 	ldbu	r16,164(sp)
    4d68:	e011883a 	mov	r8,fp
    4d6c:	84003fcc 	andi	r16,r16,255
    4d70:	8005e51e 	bne	r16,zero,6508 <___vfprintf_internal_r+0x22c4>
    4d74:	94800414 	ori	r18,r18,16
    4d78:	9080080c 	andi	r2,r18,32
    4d7c:	10022b26 	beq	r2,zero,562c <___vfprintf_internal_r+0x13e8>
    4d80:	d9002e17 	ldw	r4,184(sp)
    4d84:	d9402a17 	ldw	r5,168(sp)
    4d88:	d8002785 	stb	zero,158(sp)
    4d8c:	20c00204 	addi	r3,r4,8
    4d90:	24c00017 	ldw	r19,0(r4)
    4d94:	25800117 	ldw	r22,4(r4)
    4d98:	28042e16 	blt	r5,zero,5e54 <___vfprintf_internal_r+0x1c10>
    4d9c:	013fdfc4 	movi	r4,-129
    4da0:	9d84b03a 	or	r2,r19,r22
    4da4:	d8c02e15 	stw	r3,184(sp)
    4da8:	9124703a 	and	r18,r18,r4
    4dac:	0039883a 	mov	fp,zero
    4db0:	103e801e 	bne	r2,zero,47b4 <__alt_mem_Onchip_SRAM+0xf80047b4>
    4db4:	d9002a17 	ldw	r4,168(sp)
    4db8:	2002e01e 	bne	r4,zero,593c <___vfprintf_internal_r+0x16f8>
    4dbc:	d8002a15 	stw	zero,168(sp)
    4dc0:	d8002b15 	stw	zero,172(sp)
    4dc4:	dc001e04 	addi	r16,sp,120
    4dc8:	003ef506 	br	49a0 <__alt_mem_Onchip_SRAM+0xf80049a0>
    4dcc:	8025883a 	mov	r18,r16
    4dd0:	dc002903 	ldbu	r16,164(sp)
    4dd4:	e011883a 	mov	r8,fp
    4dd8:	84003fcc 	andi	r16,r16,255
    4ddc:	8005ba1e 	bne	r16,zero,64c8 <___vfprintf_internal_r+0x2284>
    4de0:	010000b4 	movhi	r4,2
    4de4:	2133ae04 	addi	r4,r4,-12616
    4de8:	d9003915 	stw	r4,228(sp)
    4dec:	9080080c 	andi	r2,r18,32
    4df0:	10006126 	beq	r2,zero,4f78 <___vfprintf_internal_r+0xd34>
    4df4:	d9402e17 	ldw	r5,184(sp)
    4df8:	2cc00017 	ldw	r19,0(r5)
    4dfc:	2d800117 	ldw	r22,4(r5)
    4e00:	29400204 	addi	r5,r5,8
    4e04:	d9402e15 	stw	r5,184(sp)
    4e08:	9080004c 	andi	r2,r18,1
    4e0c:	1001ac26 	beq	r2,zero,54c0 <___vfprintf_internal_r+0x127c>
    4e10:	9d84b03a 	or	r2,r19,r22
    4e14:	10038526 	beq	r2,zero,5c2c <___vfprintf_internal_r+0x19e8>
    4e18:	d8c02a17 	ldw	r3,168(sp)
    4e1c:	00800c04 	movi	r2,48
    4e20:	d8802705 	stb	r2,156(sp)
    4e24:	dc402745 	stb	r17,157(sp)
    4e28:	d8002785 	stb	zero,158(sp)
    4e2c:	90800094 	ori	r2,r18,2
    4e30:	18047916 	blt	r3,zero,6018 <___vfprintf_internal_r+0x1dd4>
    4e34:	00bfdfc4 	movi	r2,-129
    4e38:	90a4703a 	and	r18,r18,r2
    4e3c:	94800094 	ori	r18,r18,2
    4e40:	0039883a 	mov	fp,zero
    4e44:	d9003917 	ldw	r4,228(sp)
    4e48:	dc001e04 	addi	r16,sp,120
    4e4c:	988003cc 	andi	r2,r19,15
    4e50:	b006973a 	slli	r3,r22,28
    4e54:	2085883a 	add	r2,r4,r2
    4e58:	9826d13a 	srli	r19,r19,4
    4e5c:	10800003 	ldbu	r2,0(r2)
    4e60:	b02cd13a 	srli	r22,r22,4
    4e64:	843fffc4 	addi	r16,r16,-1
    4e68:	1ce6b03a 	or	r19,r3,r19
    4e6c:	80800005 	stb	r2,0(r16)
    4e70:	9d84b03a 	or	r2,r19,r22
    4e74:	103ff51e 	bne	r2,zero,4e4c <__alt_mem_Onchip_SRAM+0xf8004e4c>
    4e78:	d8c02817 	ldw	r3,160(sp)
    4e7c:	1c07c83a 	sub	r3,r3,r16
    4e80:	d8c02b15 	stw	r3,172(sp)
    4e84:	003ec606 	br	49a0 <__alt_mem_Onchip_SRAM+0xf80049a0>
    4e88:	8025883a 	mov	r18,r16
    4e8c:	dc002903 	ldbu	r16,164(sp)
    4e90:	e011883a 	mov	r8,fp
    4e94:	84003fcc 	andi	r16,r16,255
    4e98:	803e9626 	beq	r16,zero,48f4 <__alt_mem_Onchip_SRAM+0xf80048f4>
    4e9c:	d8c02b03 	ldbu	r3,172(sp)
    4ea0:	d8c02785 	stb	r3,158(sp)
    4ea4:	003e9306 	br	48f4 <__alt_mem_Onchip_SRAM+0xf80048f4>
    4ea8:	00c00044 	movi	r3,1
    4eac:	d8c02905 	stb	r3,164(sp)
    4eb0:	00c00ac4 	movi	r3,43
    4eb4:	d8c02b05 	stb	r3,172(sp)
    4eb8:	ac400007 	ldb	r17,0(r21)
    4ebc:	003d4306 	br	43cc <__alt_mem_Onchip_SRAM+0xf80043cc>
    4ec0:	84000814 	ori	r16,r16,32
    4ec4:	ac400007 	ldb	r17,0(r21)
    4ec8:	003d4006 	br	43cc <__alt_mem_Onchip_SRAM+0xf80043cc>
    4ecc:	d8802e17 	ldw	r2,184(sp)
    4ed0:	8025883a 	mov	r18,r16
    4ed4:	d8002785 	stb	zero,158(sp)
    4ed8:	14000017 	ldw	r16,0(r2)
    4edc:	e011883a 	mov	r8,fp
    4ee0:	14c00104 	addi	r19,r2,4
    4ee4:	80042d26 	beq	r16,zero,5f9c <___vfprintf_internal_r+0x1d58>
    4ee8:	d8c02a17 	ldw	r3,168(sp)
    4eec:	1803e416 	blt	r3,zero,5e80 <___vfprintf_internal_r+0x1c3c>
    4ef0:	180d883a 	mov	r6,r3
    4ef4:	000b883a 	mov	r5,zero
    4ef8:	8009883a 	mov	r4,r16
    4efc:	df003d15 	stw	fp,244(sp)
    4f00:	000baf80 	call	baf8 <memchr>
    4f04:	da003d17 	ldw	r8,244(sp)
    4f08:	10046826 	beq	r2,zero,60ac <___vfprintf_internal_r+0x1e68>
    4f0c:	1405c83a 	sub	r2,r2,r16
    4f10:	d8802b15 	stw	r2,172(sp)
    4f14:	1003e016 	blt	r2,zero,5e98 <___vfprintf_internal_r+0x1c54>
    4f18:	df002783 	ldbu	fp,158(sp)
    4f1c:	d8802915 	stw	r2,164(sp)
    4f20:	dcc02e15 	stw	r19,184(sp)
    4f24:	d8002a15 	stw	zero,168(sp)
    4f28:	d8003215 	stw	zero,200(sp)
